(dp0
S'hsa-miR-495-3p'
p1
S'AAACAAACATGGTGCACTTCTT'
p2
sS'hsa-miR-1976'
p3
S'CCTCCTGCCCTCCTTGCTGT'
p4
sS'hsa-miR-6879-5p'
p5
S'CAGGGCAGGGAAGGTGGGAGAG'
p6
sS'hsa-miR-1973'
p7
S'ACCGTGCAAAGGTAGCATA'
p8
sS'hsa-miR-1972'
p9
S'TCAGGCCAGGCACAGTGGCTCA'
p10
sS'hsa-miR-3065-3p'
p11
S'TCAGCACCAGGATATTGTTGGAG'
p12
sS'hsa-miR-548am-5p'
p13
S'AAAAGTAATTGCGGTTTTTGCC'
p14
sS'hsa-miR-4778-3p'
p15
S'TCTTCTTCCTTTGCAGAGTTGA'
p16
sS'hsa-miR-15a-3p'
p17
S'CAGGCCATATTGTGCTGCCTCA'
p18
sS'hsa-miR-1914-3p'
p19
S'GGAGGGGTCCCGCACTGGGAGG'
p20
sS'hsa-miR-4999-3p'
p21
S'TCACTACCTGACAATACAGT'
p22
sS'hsa-miR-6873-3p'
p23
S'TTCTCTCTGTCTTTCTCTCTCAG'
p24
sS'hsa-miR-6841-5p'
p25
S'TAGGGTACTCAGAGCAAGTTGT'
p26
sS'hsa-miR-552-5p'
p27
S'GTTTAACCTTTTGCCTGTTGG'
p28
sS'hsa-miR-6817-5p'
p29
S'TCTGCCATAGGAAGCTTGGAGTGG'
p30
sS'hsa-miR-4633-5p'
p31
S'ATATGCCTGGCTAGCTCCTC'
p32
sS'hsa-miR-4704-3p'
p33
S'TCAGTCACATATCTAGTGTCTA'
p34
sS'hsa-miR-329-3p'
p35
S'AACACACCTGGTTAACCTCTTT'
p36
sS'hsa-miR-6864-5p'
p37
S'TTGAAGGGACAAGTCAGATATGCC'
p38
sS'hsa-miR-4529-3p'
p39
S'ATTGGACTGCTGATGGCCCGT'
p40
sS'hsa-miR-216b-3p'
p41
S'ACACACTTACCCGTAGAGATTCTA'
p42
sS'hsa-miR-509-3p'
p43
S'TGATTGGTACGTCTGTGGGTAG'
p44
sS'hsa-miR-6749-5p'
p45
S'TCGGGCCTGGGGTTGGGGGAGC'
p46
sS'hsa-miR-526b-3p'
p47
S'GAAAGTGCTTCCTTTTAGAGGC'
p48
sS'hsa-miR-29b-1-5p'
p49
S'GCTGGTTTCATATGGTGGTTTAGA'
p50
sS'hsa-miR-32-5p'
p51
S'TATTGCACATTACTAAGTTGCA'
p52
sS'hsa-miR-504-3p'
p53
S'GGGAGTGCAGGGCAGGGTTTC'
p54
sS'hsa-miR-5587-5p'
p55
S'ATGGTCACCTCCGGGACT'
p56
sS'hsa-miR-4775'
p57
S'TTAATTTTTTGTTTCGGTCACT'
p58
sS'hsa-miR-33b-3p'
p59
S'CAGTGCCTCGGCAGTGCAGCCC'
p60
sS'hsa-miR-5688'
p61
S'TAACAAACACCTGTAAAACAGC'
p62
sS'hsa-miR-302c-3p'
p63
S'TAAGTGCTTCCATGTTTCAGTGG'
p64
sS'hsa-miR-4477b'
p65
S'ATTAAGGACATTTGTGATTGAT'
p66
sS'hsa-miR-4477a'
p67
S'CTATTAAGGACATTTGTGATTC'
p68
sS'hsa-miR-542-5p'
p69
S'TCGGGGATCATCATGTCACGAGA'
p70
sS'hsa-miR-96-3p'
p71
S'AATCATGTGCAGTGCCAATATG'
p72
sS'hsa-miR-5684'
p73
S'AACTCTAGCCTGAGCAACAG'
p74
sS'hsa-miR-4715-3p'
p75
S'GTGCCACCTTAACTGCAGCCAAT'
p76
sS'hsa-miR-5004-3p'
p77
S'CTTGGATTTTCCTGGGCCTCAG'
p78
sS'hsa-miR-4482-5p'
p79
S'AACCCAGTGGGCTATGGAAATG'
p80
sS'hsa-miR-1273g-5p'
p81
S'GGTGGTTGAGGCTGCAGTAAGT'
p82
sS'hsa-miR-151b'
p83
S'TCGAGGAGCTCACAGTCT'
p84
sS'hsa-miR-4497'
p85
S'CTCCGGGACGGCTGGGC'
p86
sS'hsa-miR-4496'
p87
S'GAGGAAACTGAAGCTGAGAGGG'
p88
sS'hsa-miR-4495'
p89
S'AATGTAAACAGGCTTTTTGCT'
p90
sS'hsa-miR-4494'
p91
S'CCAGACTGTGGCTGACCAGAGG'
p92
sS'hsa-miR-4493'
p93
S'AGAAGGCCTTTCCATCTCTGT'
p94
sS'hsa-miR-4492'
p95
S'GGGGCTGGGCGCGCGCC'
p96
sS'hsa-miR-4491'
p97
S'AATGTGGACTGGTGTGACCAAA'
p98
sS'hsa-miR-4490'
p99
S'TCTGGTAAGAGATTTGGGCATA'
p100
sS'hsa-miR-514b-5p'
p101
S'TTCTCAAGAGGGAGGCAATCAT'
p102
sS'hsa-miR-1251-3p'
p103
S'CGCTTTGCTCAGCCAGTGTAG'
p104
sS'hsa-miR-4499'
p105
S'AAGACTGAGAGGAGGGA'
p106
sS'hsa-miR-4498'
p107
S'TGGGCTGGCAGGGCAAGTGCTG'
p108
sS'hsa-miR-4654'
p109
S'TGTGGGATCTGGAGGCATCTGG'
p110
sS'hsa-miR-4657'
p111
S'AATGTGGAAGTGGTCTGAGGCAT'
p112
sS'hsa-miR-4656'
p113
S'TGGGCTGAGGGCAGGAGGCCTGT'
p114
sS'hsa-miR-4651'
p115
S'CGGGGTGGGTGAGGTCGGGC'
p116
sS'hsa-miR-6795-3p'
p117
S'ACCCCTCGTTTCTTCCCCCAG'
p118
sS'hsa-miR-205-3p'
p119
S'GATTTCAGTGGAGTGAAGTTC'
p120
sS'hsa-miR-5704'
p121
S'TTAGGCCATCATCCCATTATGC'
p122
sS'hsa-miR-4444'
p123
S'CTCGAGTTGGAAGAGGCG'
p124
sS'hsa-miR-5706'
p125
S'TTCTGGATAACATGCTGAAGCT'
p126
sS'hsa-miR-4787-3p'
p127
S'GATGCGCCGCCCACTGCCCCGCGC'
p128
sS'hsa-miR-5700'
p129
S'TAATGCATTAAATTATTGAAGG'
p130
sS'hsa-miR-4658'
p131
S'GTGAGTGTGGATCCTGGAGGAAT'
p132
sS'hsa-miR-653-5p'
p133
S'GTGTTGAAACAATCTCTACTG'
p134
sS'hsa-miR-5703'
p135
S'AGGAGAAGTCGGGAAGGT'
p136
sS'hsa-miR-4708-3p'
p137
S'AGCAAGGCGGCATCTCTCTGAT'
p138
sS'hsa-miR-527'
p139
S'CTGCAAAGGGAAGCCCTTTC'
p140
sS'hsa-miR-521'
p141
S'AACGCACTTCCCTTTAGAGTGT'
p142
sS'hsa-miR-652-3p'
p143
S'AATGGCGCCACTAGGGTTGTG'
p144
sS'hsa-miR-6815-5p'
p145
S'TAGGTGGCGCCGGAGGAGTCATT'
p146
sS'hsa-miR-206'
p147
S'TGGAATGTAAGGAAGTGTGTGG'
p148
sS'hsa-miR-8074'
p149
S'CTATGGCGAGACTGGCATGTACTC'
p150
sS'hsa-miR-4527'
p151
S'TGGTCTGCAAAGAGATGACTGT'
p152
sS'hsa-miR-8077'
p153
S'GGCTGAGTGGGGTTCTGACTCC'
p154
sS'hsa-miR-8076'
p155
S'TATATGGACTTTTCTGATACAATG'
p156
sS'hsa-miR-6789-3p'
p157
S'CGGCGCCCGTGTCTCCTCCAG'
p158
sS'hsa-miR-6773-5p'
p159
S'TTGGGCCCAGGAGTAAACAGGAT'
p160
sS'hsa-miR-4796-3p'
p161
S'TAAAGTGGCAGAGTATAGACAC'
p162
sS'hsa-miR-3678-3p'
p163
S'CTGCAGAGTTTGTACGGACCGG'
p164
sS'hsa-miR-630'
p165
S'AGTATTCTGTACCAGGGAAGGT'
p166
sS'hsa-miR-631'
p167
S'AGACCTGGCCCAGACCTCAGC'
p168
sS'hsa-miR-632'
p169
S'GTGTCTGCTTCCTGTGGGA'
p170
sS'hsa-miR-633'
p171
S'CTAATAGTATCTACCACAATAAA'
p172
sS'hsa-miR-634'
p173
S'AACCAGCACCCCAACTTTGGAC'
p174
sS'hsa-miR-635'
p175
S'ACTTGGGCACTGAAACAATGTCC'
p176
sS'hsa-miR-636'
p177
S'TGTGCTTGCTCGTCCCGCCCGCA'
p178
sS'hsa-miR-637'
p179
S'ACTGGGGGCTTTCGGGCTCTGCGT'
p180
sS'hsa-miR-638'
p181
S'AGGGATCGCGGGCGGGTGGCGGCCT'
p182
sS'hsa-miR-639'
p183
S'ATCGCTGCGGTTGCGAGCGCTGT'
p184
sS'hsa-miR-6819-5p'
p185
S'TTGGGGTGGAGGGCCAAGGAGC'
p186
sS'hsa-let-7g-5p'
p187
S'TGAGGTAGTAGTTTGTACAGTT'
p188
sS'hsa-miR-6762-3p'
p189
S'TGGCTGCTTCCCTTGGTCTCCAG'
p190
sS'hsa-miR-6787-5p'
p191
S'TGGCGGGGGTAGAGCTGGCTGC'
p192
sS'hsa-miR-18b-5p'
p193
S'TAAGGTGCATCTAGTGCAGTTAG'
p194
sS'hsa-miR-5588-5p'
p195
S'ACTGGCATTAGTGGGACTTTT'
p196
sS'hsa-miR-139-3p'
p197
S'TGGAGACGCGGCCCTGTTGGAGT'
p198
sS'hsa-miR-6764-5p'
p199
S'TCCCAGGGTCTGGTCAGAGTTG'
p200
sS'hsa-miR-433-3p'
p201
S'ATCATGATGGGCTCCTCGGTGT'
p202
sS'hsa-miR-455-5p'
p203
S'TATGTGCCTTTGGACTACATCG'
p204
sS'hsa-miR-6882-3p'
p205
S'TGCTGCCTCTCCTCTTGCCTGCAG'
p206
sS'hsa-miR-454-3p'
p207
S'TAGTGCAATATTGCTTATAGGGT'
p208
sS'hsa-miR-3141'
p209
S'GAGGGCGGGTGGAGGAGGA'
p210
sS'hsa-miR-3142'
p211
S'AAGGCCTTTCTGAACCTTCAGA'
p212
sS'hsa-miR-2682-5p'
p213
S'CAGGCAGTGACTGTTCAGACGTC'
p214
sS'hsa-miR-501-3p'
p215
S'AATGCACCCGGGCAAGGATTCT'
p216
sS'hsa-miR-3136-3p'
p217
S'TGGCCCAACCTATTCAGTTAGT'
p218
sS'hsa-miR-3147'
p219
S'GGTTGGGCAGTGAGGAGGGTGTGA'
p220
sS'hsa-miR-3148'
p221
S'TGGAAAAAACTGGTGTGTGCTT'
p222
sS'hsa-miR-3149'
p223
S'TTTGTATGGATATGTGTGTGTAT'
p224
sS'hsa-miR-369-5p'
p225
S'AGATCGACCGTGTTATATTCGC'
p226
sS'hsa-miR-208b-5p'
p227
S'AAGCTTTTTGCTCGAATTATGT'
p228
sS'hsa-miR-939-5p'
p229
S'TGGGGAGCTGAGGCTCTGGGGGTG'
p230
sS'hsa-miR-6878-5p'
p231
S'AGGGAGAAAGCTAGAAGCTGAAG'
p232
sS'hsa-miR-450a-5p'
p233
S'TTTTGCGATGTGTTCCTAATAT'
p234
sS'hsa-miR-485-5p'
p235
S'AGAGGCTGGCCGTGATGAATTC'
p236
sS'hsa-miR-4714-3p'
p237
S'CCAACCTAGGTGGTCAGAGTTG'
p238
sS'hsa-miR-3617-5p'
p239
S'AAAGACATAGTTGCAAGATGGG'
p240
sS'hsa-miR-519e-5p'
p241
S'TTCTCCAAAAGGGAGCACTTTC'
p242
sS'hsa-miR-6831-5p'
p243
S'TAGGTAGAGTGTGAGGAGGAGGTC'
p244
sS'hsa-miR-128-1-5p'
p245
S'CGGGGCCGTAGCACTGTCTGAGA'
p246
sS'hsa-miR-4746-5p'
p247
S'CCGGTCCCAGGAGAACCTGCAGA'
p248
sS'hsa-miR-6739-5p'
p249
S'TGGGAAAGAGAAAGAACAAGTA'
p250
sS'hsa-miR-3922-3p'
p251
S'TCTGGCCTTGACTTGACTCTTT'
p252
sS'hsa-miR-4638-5p'
p253
S'ACTCGGCTGCGGTGGACAAGT'
p254
sS'hsa-miR-5100'
p255
S'TTCAGATCCCAGCGGTGCCTCT'
p256
sS'hsa-miR-708-5p'
p257
S'AAGGAGCTTACAATCTAGCTGGG'
p258
sS'hsa-miR-2467-3p'
p259
S'AGCAGAGGCAGAGAGGCTCAGG'
p260
sS'hsa-miR-6784-5p'
p261
S'GCCGGGGCTTTGGGTGAGGG'
p262
sS'hsa-miR-214-5p'
p263
S'TGCCTGTCTACACTTGCTGTGC'
p264
sS'hsa-miR-215-5p'
p265
S'ATGACCTATGAATTGACAGAC'
p266
sS'hsa-miR-6785-5p'
p267
S'TGGGAGGGCGTGGATGATGGTG'
p268
sS'hsa-miR-548j-5p'
p269
S'AAAAGTAATTGCGGTCTTTGGT'
p270
sS'hsa-miR-6856-5p'
p271
S'AAGAGAGGAGCAGTGGTGCTGTGG'
p272
sS'hsa-miR-193b-3p'
p273
S'AACTGGCCCTCAAAGTCCCGCT'
p274
sS'hsa-miR-6726-5p'
p275
S'CGGGAGCTGGGGTCTGCAGGT'
p276
sS'hsa-miR-6727-5p'
p277
S'CTCGGGGCAGGCGGCTGGGAGCG'
p278
sS'hsa-miR-4470'
p279
S'TGGCAAACGTGGAAGCCGAGA'
p280
sS'hsa-miR-3158-5p'
p281
S'CCTGCAGAGAGGAAGCCCTTC'
p282
sS'hsa-miR-515-5p'
p283
S'TTCTCCAAAAGAAAGCACTTTCTG'
p284
sS'hsa-miR-5196-3p'
p285
S'TCATCCTCGTCTCCCTCCCAG'
p286
sS'hsa-miR-29c-3p'
p287
S'TAGCACCATTTGAAATCGGTTA'
p288
sS'hsa-miR-6821-3p'
p289
S'TGACCTCTCCGCTCCGCACAG'
p290
sS'hsa-miR-6834-3p'
p291
S'TATGTCCCATCCCTCCATCA'
p292
sS'hsa-miR-155-3p'
p293
S'CTCCTACATATTAGCATTAACA'
p294
sS'hsa-miR-140-5p'
p295
S'CAGTGGTTTTACCCTATGGTAG'
p296
sS'hsa-miR-4259'
p297
S'CAGTTGGGTCTAGGGGTCAGGA'
p298
sS'hsa-miR-4258'
p299
S'CCCCGCCACCGCCTTGG'
p300
sS'hsa-miR-3920'
p301
S'ACTGATTATCTTAACTCTCTGA'
p302
sS'hsa-miR-3921'
p303
S'TCTCTGAGTACCATATGCCTTGT'
p304
sS'hsa-miR-3926'
p305
S'TGGCCAAAAAGCAGGCAGAGA'
p306
sS'hsa-miR-3924'
p307
S'ATATGTATATGTGACTGCTACT'
p308
sS'hsa-let-7d-5p'
p309
S'AGAGGTAGTAGGTTGCATAGTT'
p310
sS'hsa-miR-4251'
p311
S'CCTGAGAAAAGGGCCAA'
p312
sS'hsa-miR-6761-3p'
p313
S'TCCTACGCTGCTCTCTCACTCC'
p314
sS'hsa-miR-181c-3p'
p315
S'AACCATCGACCGTTGAGTGGAC'
p316
sS'hsa-miR-4252'
p317
S'GGCCACTGAGTCAGCACCA'
p318
sS'hsa-miR-3156-3p'
p319
S'CTCCCACTTCCAGATCTTTCT'
p320
sS'hsa-miR-4254'
p321
S'GCCTGGAGCTACTCCACCATCTC'
p322
sS'hsa-miR-4257'
p323
S'CCAGAGGTGGGGACTGAG'
p324
sS'hsa-miR-4256'
p325
S'ATCTGACCTGATGAAGGT'
p326
sS'hsa-miR-16-1-3p'
p327
S'CCAGTATTAACTGTGCTGCTGA'
p328
sS'hsa-miR-6790-3p'
p329
S'CGACCTCGGCGACCCCTCACT'
p330
sS'hsa-miR-4749-5p'
p331
S'TGCGGGGACAGGCCAGGGCATC'
p332
sS'hsa-miR-4735-5p'
p333
S'CCTAATTTGAACACCTTCGGTA'
p334
sS'hsa-miR-4757-3p'
p335
S'CATGACGTCACAGAGGCTTCGC'
p336
sS'hsa-let-7a-3p'
p337
S'CTATACAATCTACTGTCTTTC'
p338
sS'hsa-miR-454-5p'
p339
S'ACCCTATCAATATTGTCTCTGC'
p340
sS'hsa-miR-4725-3p'
p341
S'TGGGGAAGGCGTCAGTGTCGGG'
p342
sS'hsa-miR-3187-5p'
p343
S'CCTGGGCAGCGTGTGGCTGAAGG'
p344
sS'hsa-miR-539-3p'
p345
S'ATCATACAAGGACAATTTCTTT'
p346
sS'hsa-miR-1285-5p'
p347
S'GATCTCACTTTGTTGCCCAGG'
p348
sS'hsa-miR-3145-5p'
p349
S'AACTCCAAACACTCAAAACTCA'
p350
sS'hsa-miR-19b-1-5p'
p351
S'AGTTTTGCAGGTTTGCATCCAGC'
p352
sS'hsa-miR-3144-5p'
p353
S'AGGGGACCAAAGAGATATATAG'
p354
sS'hsa-miR-4700-3p'
p355
S'CACAGGACTGACTCCTCACCCCAGTG'
p356
sS'hsa-miR-7856-5p'
p357
S'TTTTAAGGACACTGAGGGATC'
p358
sS'hsa-miR-593-3p'
p359
S'TGTCTCTGCTGGGGTTTCT'
p360
sS'hsa-miR-204-5p'
p361
S'TTCCCTTTGTCATCCTATGCCT'
p362
sS'hsa-miR-885-5p'
p363
S'TCCATTACACTACCCTGCCTCT'
p364
sS'hsa-miR-6771-5p'
p365
S'CTCGGGAGGGCATGGGCCAGGC'
p366
sS'hsa-miR-6891-5p'
p367
S'TAAGGAGGGGGATGAGGGG'
p368
sS'hsa-miR-6866-5p'
p369
S'TTAGAGGCTGGAATAGAGATTCT'
p370
sS'hsa-miR-7-2-3p'
p371
S'CAACAAATCCCAGTCTACCTAA'
p372
sS'hsa-miR-6867-3p'
p373
S'CTCTCCCTCTTTACCCACTAG'
p374
sS'hsa-miR-5197-3p'
p375
S'AAGAAGAGACTGAGTCATCGAAT'
p376
sS'hsa-miR-544b'
p377
S'ACCTGAGGTTGTGCATTTCTAA'
p378
sS'hsa-miR-544a'
p379
S'ATTCTGCATTTTTAGCAAGTTC'
p380
sS'hsa-miR-338-3p'
p381
S'TCCAGCATCAGTGATTTTGTTG'
p382
sS'hsa-miR-148b-5p'
p383
S'AAGTTCTGTTATACACTCAGGC'
p384
sS'hsa-miR-4659a-5p'
p385
S'CTGCCATGTCTAAGAAGAAAAC'
p386
sS'hsa-miR-6826-3p'
p387
S'CTCCCCTCTCTTTCCTGTTCAG'
p388
sS'hsa-miR-629-5p'
p389
S'TGGGTTTACGTTGGGAGAACT'
p390
sS'hsa-miR-4786-5p'
p391
S'TGAGACCAGGACTGGATGCACC'
p392
sS'hsa-miR-6786-5p'
p393
S'GCGGTGGGGCCGGAGGGGCGT'
p394
sS'hsa-miR-4753-3p'
p395
S'TTCTCTTTCTTTAGCCTTGTGT'
p396
sS'hsa-miR-548ar-3p'
p397
S'TAAAACTGCAGTTATTTTTGC'
p398
sS'hsa-miR-7-1-3p'
p399
S'CAACAAATCACAGTCTGCCATA'
p400
sS'hsa-miR-133a-5p'
p401
S'AGCTGGTAAAATGGAACCAAAT'
p402
sS'hsa-miR-6779-5p'
p403
S'CTGGGAGGGGCTGGGTTTGGC'
p404
sS'hsa-miR-3200-5p'
p405
S'AATCTGAGAAGGCGCACAAGGT'
p406
sS'hsa-miR-2277-3p'
p407
S'TGACAGCGCCCTGCCTGGCTC'
p408
sS'hsa-miR-6509-5p'
p409
S'ATTAGGTAGTGGCAGTGGAAC'
p410
sS'hsa-miR-7109-3p'
p411
S'CAAGCCTCTCCTGCCCTTCCAG'
p412
sS'hsa-miR-6778-5p'
p413
S'AGTGGGAGGACAGGAGGCAGGT'
p414
sS'hsa-miR-372-3p'
p415
S'AAAGTGCTGCGACATTTGAGCGT'
p416
sS'hsa-miR-365b-5p'
p417
S'AGGGACTTTCAGGGGCAGCTGT'
p418
sS'hsa-miR-374a-5p'
p419
S'TTATAATACAACCTGATAAGTG'
p420
sS'hsa-miR-6839-5p'
p421
S'TCTGGATTGAAGAGACGACCCA'
p422
sS'hsa-miR-362-5p'
p423
S'AATCCTTGGAACCTAGGTGTGAGT'
p424
sS'hsa-miR-6724-5p'
p425
S'CTGGGCCCGCGGCGGGCGTGGGG'
p426
sS'hsa-miR-193a-3p'
p427
S'AACTGGCCTACAAAGTCCCAGT'
p428
sS'hsa-miR-6838-3p'
p429
S'AAGTCCTGCTTCTGTTGCAG'
p430
sS'hsa-miR-6863'
p431
S'TAGACGTGGTGAAGGATTGAGTG'
p432
sS'hsa-miR-541-5p'
p433
S'AAAGGATTCTGCTGTCGGTCCCACT'
p434
sS'hsa-miR-6791-3p'
p435
S'TGCCTCCTTGGTCTCCGGCAG'
p436
sS'hsa-miR-130b-5p'
p437
S'ACTCTTTCCCTGTTGCACTAC'
p438
sS'hsa-miR-30a-5p'
p439
S'TGTAAACATCCTCGACTGGAAG'
p440
sS'hsa-miR-151a-5p'
p441
S'TCGAGGAGCTCACAGTCTAGT'
p442
sS'hsa-miR-619-3p'
p443
S'GACCTGGACATGTTTGTGCCCAGT'
p444
sS'hsa-miR-656-3p'
p445
S'AATATTATACAGTCAACCTCT'
p446
sS'hsa-miR-379-5p'
p447
S'TGGTAGACTATGGAACGTAGG'
p448
sS'hsa-miR-6833-5p'
p449
S'GTGTGGAAGATGGGAGGAGAAA'
p450
sS'hsa-miR-4710'
p451
S'GGGTGAGGGCAGGTGGTT'
p452
sS'hsa-miR-6736-3p'
p453
S'TCAGCTCCTCTCTACCCACAG'
p454
sS'hsa-miR-6744-3p'
p455
S'GGGCCTCTCTTGTCATCCTGCAG'
p456
sS'hsa-miR-6737-3p'
p457
S'TCTGTGCTTCACCCCTACCCAG'
p458
sS'hsa-miR-4718'
p459
S'AGCTGTACCTGAAACCAAGCA'
p460
sS'hsa-miR-4719'
p461
S'TCACAAATCTATAATATGCAGG'
p462
sS'hsa-miR-34c-3p'
p463
S'AATCACTAACCACACGGCCAGG'
p464
sS'hsa-miR-1306-5p'
p465
S'CCACCTCCCCTGCAAACGTCCA'
p466
sS'hsa-miR-1307-3p'
p467
S'ACTCGGCGTGGCGTCGGTCGTG'
p468
sS'hsa-miR-4652-3p'
p469
S'GTTCTGTTAACCCATCCCCTCA'
p470
sS'hsa-miR-570-3p'
p471
S'CGAAAACAGCAATTACCTTTGC'
p472
sS'hsa-miR-6843-3p'
p473
S'ATGGTCTCCTGTTCTCTGCAG'
p474
sS'hsa-miR-7151-5p'
p475
S'GATCCATCTCTGCCTGTATTGGC'
p476
sS'hsa-miR-3184-5p'
p477
S'TGAGGGGCCTCAGACCGAGCTTTT'
p478
sS'hsa-miR-6889-5p'
p479
S'TCGGGGAGTCTGGGGTCCGGAAT'
p480
sS'hsa-miR-1292-3p'
p481
S'TCGCGCCCCGGCTCCCGTTC'
p482
sS'hsa-miR-6508-3p'
p483
S'TGGGCCATGCATTTCTAGAACT'
p484
sS'hsa-miR-548ao-5p'
p485
S'AGAAGTAACTACGGTTTTTGCA'
p486
sS'hsa-miR-5572'
p487
S'GTTGGGGTGCAGGGGTCTGCT'
p488
sS'hsa-miR-642b-3p'
p489
S'AGACACATTTGGAGAGGGACCC'
p490
sS'hsa-miR-6516-5p'
p491
S'TTTGCAGTAACAGGTGTGAGCA'
p492
sS'hsa-let-7i-3p'
p493
S'CTGCGCAAGCTACTGCCTTGCT'
p494
sS'hsa-miR-374b-5p'
p495
S'ATATAATACAACCTGCTAAGTG'
p496
sS'hsa-miR-487a-3p'
p497
S'AATCATACAGGGACATCCAGTT'
p498
sS'hsa-miR-3912-3p'
p499
S'TAACGCATAATATGGACATGT'
p500
sS'hsa-miR-18a-5p'
p501
S'TAAGGTGCATCTAGTGCAGATAG'
p502
sS'hsa-miR-598-3p'
p503
S'TACGTCATCGTTGTCATCGTCA'
p504
sS'hsa-miR-130a-5p'
p505
S'TTCACATTGTGCTACTGTCTGC'
p506
sS'hsa-miR-520c-3p'
p507
S'AAAGTGCTTCCTTTTAGAGGGT'
p508
sS'hsa-miR-7843-5p'
p509
S'GAGGGCAGAGCCAGCTTCCTGA'
p510
sS'hsa-miR-5003-5p'
p511
S'TCACAACAACCTTGCAGGGTAGA'
p512
sS'hsa-miR-6088'
p513
S'AGAGATGAAGCGGGGGGGCG'
p514
sS'hsa-miR-6089'
p515
S'GGAGGCCGGGGTGGGGCGGGGCGG'
p516
sS'hsa-miR-30c-5p'
p517
S'TGTAAACATCCTACACTCTCAGC'
p518
sS'hsa-miR-6087'
p519
S'TGAGGCGGGGGGGCGAGC'
p520
sS'hsa-miR-6084'
p521
S'TTCCGCCAGTCGGTGGCCGG'
p522
sS'hsa-miR-6085'
p523
S'AAGGGGCTGGGGGAGCACA'
p524
sS'hsa-miR-16-5p'
p525
S'TAGCAGCACGTAAATATTGGCG'
p526
sS'hsa-miR-6083'
p527
S'CTTATATCAGAGGCTGTGGG'
p528
sS'hsa-miR-6080'
p529
S'TCTAGTGCGGGCGTTCCCG'
p530
sS'hsa-miR-6081'
p531
S'AGGAGCAGTGCCGGCCAAGGCGCC'
p532
sS'hsa-miR-6847-3p'
p533
S'GGCTCATGTGTCTGTCCTCTTC'
p534
sS'hsa-miR-548ae-5p'
p535
S'AAAAGTAATTGTGGTTTTTG'
p536
sS'hsa-miR-5006-3p'
p537
S'TTTCCCTTTCCATCCTGGCAG'
p538
sS'hsa-miR-6752-5p'
p539
S'GGGGGGTGTGGAGCCAGGGGGC'
p540
sS'hsa-miR-604'
p541
S'AGGCTGCGGAATTCAGGAC'
p542
sS'hsa-miR-607'
p543
S'GTTCAAATCCAGATCTATAAC'
p544
sS'hsa-miR-606'
p545
S'AAACTACTGAAAATCAAAGAT'
p546
sS'hsa-miR-601'
p547
S'TGGTCTAGGATTGTTGGAGGAG'
p548
sS'hsa-miR-600'
p549
S'ACTTACAGACAAGAGCCTTGCTC'
p550
sS'hsa-miR-603'
p551
S'CACACACTGCAATTACTTTTGC'
p552
sS'hsa-miR-602'
p553
S'GACACGGGCGACAGCTGCGGCCC'
p554
sS'hsa-miR-4534'
p555
S'GGATGGAGGAGGGGTCT'
p556
sS'hsa-miR-4535'
p557
S'GTGGACCTGGCTGGGAC'
p558
sS'hsa-miR-4537'
p559
S'TGAGCCGAGCTGAGCTTAGCTG'
p560
sS'hsa-miR-609'
p561
S'AGGGTGTTTCTCTCATCTCT'
p562
sS'hsa-miR-608'
p563
S'AGGGGTGGTGTTGGGACAGCTCCGT'
p564
sS'hsa-miR-4532'
p565
S'CCCCGGGGAGCCCGGCG'
p566
sS'hsa-miR-4533'
p567
S'TGGAAGGAGGTTGCCGGACGCT'
p568
sS'hsa-miR-5000-5p'
p569
S'CAGTTCAGAAGTGTTCCTGAGT'
p570
sS'hsa-miR-466'
p571
S'ATACACATACACGCAACACACAT'
p572
sS'hsa-miR-3681-3p'
p573
S'ACACAGTGCTTCATCCACTACT'
p574
sS'hsa-miR-624-3p'
p575
S'CACAAGGTATTGGTATTACCT'
p576
sS'hsa-miR-7153-5p'
p577
S'TGAGAACTGACAAATGTGGTAGG'
p578
sS'hsa-miR-561-5p'
p579
S'ATCAAGGATCTTAAACTTTGCC'
p580
sS'hsa-miR-7515'
p581
S'AGAAGGGAAGATGGTGAC'
p582
sS'hsa-miR-3153'
p583
S'GGGGAAAGCGAGTAGGGACATTT'
p584
sS'hsa-miR-513c-3p'
p585
S'TAAATTTCACCTTTCTGAGAAGA'
p586
sS'hsa-miR-3154'
p587
S'CAGAAGGGGAGTTGGGAGCAGA'
p588
sS'hsa-miR-4646-5p'
p589
S'ACTGGGAAGAGGAGCTGAGGGA'
p590
sS'hsa-miR-3159'
p591
S'TAGGATTACAAGTGTCGGCCAC'
p592
sS'hsa-miR-6747-3p'
p593
S'TCCTGCCTTCCTCTGCACCAG'
p594
sS'hsa-miR-208a-3p'
p595
S'ATAAGACGAGCAAAAAGCTTGT'
p596
sS'hsa-miR-6870-5p'
p597
S'TGGGGGAGATGGGGGTTGA'
p598
sS'hsa-miR-548e-5p'
p599
S'CAAAAGCAATCGCGGTTTTTGC'
p600
sS'hsa-miR-548d-3p'
p601
S'CAAAAACCACAGTTTCTTTTGC'
p602
sS'hsa-miR-381-3p'
p603
S'TATACAAGGGCAAGCTCTCTGT'
p604
sS'hsa-miR-892c-3p'
p605
S'CACTGTTTCCTTTCTGAGTGGA'
p606
sS'hsa-miR-6733-5p'
p607
S'TGGGAAAGACAAACTCAGAGTT'
p608
sS'hsa-miR-5189-3p'
p609
S'TGCCAACCGTCAGAGCCCAGA'
p610
sS'hsa-miR-942-3p'
p611
S'CACATGGCCGAAACAGAGAAGT'
p612
sS'hsa-miR-185-5p'
p613
S'TGGAGAGAAAGGCAGTTCCTGA'
p614
sS'hsa-miR-195-5p'
p615
S'TAGCAGCACAGAAATATTGGC'
p616
sS'hsa-miR-4476'
p617
S'CAGGAAGGATTTAGGGACAGGC'
p618
sS'hsa-miR-6769b-3p'
p619
S'CCCTCTCTGTCCCACCCATAG'
p620
sS'hsa-miR-3126-5p'
p621
S'TGAGGGACAGATGCCAGAAGCA'
p622
sS'hsa-miR-342-5p'
p623
S'AGGGGTGCTATCTGTGATTGA'
p624
sS'hsa-miR-374c-5p'
p625
S'ATAATACAACCTGCTAAGTGCT'
p626
sS'hsa-miR-199b-3p'
p627
S'ACAGTAGTCTGCACATTGGTTA'
p628
sS'hsa-miR-1238-5p'
p629
S'GTGAGTGGGAGCCCCAGTGTGTG'
p630
sS'hsa-miR-4524b-5p'
p631
S'ATAGCAGCATAAGCCTGTCTC'
p632
sS'hsa-miR-4665-3p'
p633
S'CTCGGCCGCGGCGCGTAGCCCCCGCC'
p634
sS'hsa-miR-186-5p'
p635
S'CAAAGAATTCTCCTTTTGGGCT'
p636
sS'hsa-miR-1-5p'
p637
S'ACATACTTCTTTATATGCCCAT'
p638
sS'hsa-miR-499a-3p'
p639
S'AACATCACAGCAAGTCTGTGCT'
p640
sS'hsa-miR-4712-5p'
p641
S'TCCAGTACAGGTCTCTCATTTC'
p642
sS'hsa-miR-378a-5p'
p643
S'CTCCTGACTCCAGGTCCTGTGT'
p644
sS'hsa-miR-4697-5p'
p645
S'AGGGGGCGCAGTCACTGACGTG'
p646
sS'hsa-miR-4777-5p'
p647
S'TTCTAGATGAGAGATATATATA'
p648
sS'hsa-miR-6763-3p'
p649
S'CTCCCCGGCCTCTGCCCCCAG'
p650
sS'hsa-miR-3189-3p'
p651
S'CCCTTGGGTCTGATGGGGTAG'
p652
sS'hsa-miR-125b-5p'
p653
S'TCCCTGAGACCCTAACTTGTGA'
p654
sS'hsa-miR-3939'
p655
S'TACGCGCAGACCACAGGATGTC'
p656
sS'hsa-miR-30e-5p'
p657
S'TGTAAACATCCTTGACTGGAAG'
p658
sS'hsa-miR-3935'
p659
S'TGTAGATACGAGCACCAGCCAC'
p660
sS'hsa-miR-219a-2-3p'
p661
S'AGAATTGTGGCTGGACATCTGT'
p662
sS'hsa-miR-3937'
p663
S'ACAGGCGGCTGTAGCAATGGGGG'
p664
sS'hsa-miR-3936'
p665
S'TAAGGGGTGTATGGCAGATGCA'
p666
sS'hsa-miR-4632-5p'
p667
S'GAGGGCAGCGTGGGTGTGGCGGA'
p668
sS'hsa-miR-4684-5p'
p669
S'CTCTCTACTGACTTGCAACATA'
p670
sS'hsa-miR-4685-3p'
p671
S'TCTCCCTTCCTGCCCTGGCTAG'
p672
sS'hsa-miR-548aj-3p'
p673
S'TAAAAACTGCAATTACTTTTA'
p674
sS'hsa-miR-431-3p'
p675
S'CAGGTCGTCTTGCAGGGCTTCT'
p676
sS'hsa-miR-296-3p'
p677
S'GAGGGTTGGGTGGAGGCTCTCC'
p678
sS'hsa-miR-4661-3p'
p679
S'CAGGATCCACAGAGCTAGTCCA'
p680
sS'hsa-miR-1179'
p681
S'AAGCATTCTTTCATTGGTTGG'
p682
sS'hsa-miR-4790-3p'
p683
S'TGAATGGTAAAGCGATGTCACA'
p684
sS'hsa-miR-5580-3p'
p685
S'CACATATGAAGTGAGCCAGCAC'
p686
sS'hsa-miR-5708'
p687
S'ATGAGCGACTGTGCCTGACC'
p688
sS'hsa-miR-6893-3p'
p689
S'CCCTGCTGCCTTCACCTGCCAG'
p690
sS'hsa-miR-3665'
p691
S'AGCAGGTGCGGGGCGGCG'
p692
sS'hsa-miR-767-5p'
p693
S'TGCACCATGGTTGTCTGAGCATG'
p694
sS'hsa-miR-6715b-3p'
p695
S'CTCAAACCGGCTGTGCCTGTGG'
p696
sS'hsa-miR-548av-3p'
p697
S'AAAACTGCAGTTACTTTTGC'
p698
sS'hsa-miR-766-3p'
p699
S'ACTCCAGCCCCACAGCCTCAGC'
p700
sS'hsa-miR-6872-5p'
p701
S'TCTCGCATCAGGAGGCAAGG'
p702
sS'hsa-miR-181d-5p'
p703
S'AACATTCATTGTTGTCGGTGGGT'
p704
sS'hsa-miR-5705'
p705
S'TGTTTCGGGGCTCATGGCCTGTG'
p706
sS'hsa-miR-3621'
p707
S'CGCGGGTCGGGGTCTGCAGG'
p708
sS'hsa-miR-4802-5p'
p709
S'TATGGAGGTTCTAGACCATGTT'
p710
sS'hsa-miR-4800-5p'
p711
S'AGTGGACCGAGGAAGGAAGGA'
p712
sS'hsa-miR-5707'
p713
S'ACGTTTGAATGCTGTACAAGGC'
p714
sS'hsa-miR-548f-5p'
p715
S'TGCAAAAGTAATCACAGTTTTT'
p716
sS'hsa-miR-124-3p'
p717
S'TAAGGCACGCGGTGAATGCC'
p718
sS'hsa-miR-6890-3p'
p719
S'CCACTGCCTATGCCCCACAG'
p720
sS'hsa-miR-4694-5p'
p721
S'AGGTGTTATCCTATCCATTTGC'
p722
sS'hsa-miR-6825-3p'
p723
S'GCGCTGACCCGCCTTCTCCGCA'
p724
sS'hsa-miR-181a-3p'
p725
S'ACCATCGACCGTTGATTGTACC'
p726
sS'hsa-miR-376b-5p'
p727
S'CGTGGATATTCCTTCTATGTTT'
p728
sS'hsa-miR-6830-5p'
p729
S'CCAAGGAAGGAGGCTGGACATC'
p730
sS'hsa-miR-4695-5p'
p731
S'CAGGAGGCAGTGGGCGAGCAGG'
p732
sS'hsa-miR-550b-3p'
p733
S'TCTTACTCCCTCAGGCACTG'
p734
sS'hsa-miR-5702'
p735
S'TGAGTCAGCAACATATCCCATG'
p736
sS'hsa-miR-200c-3p'
p737
S'TAATACTGCCGGGTAATGATGGA'
p738
sS'hsa-miR-5571-3p'
p739
S'GTCCTAGGAGGCTCCTCTG'
p740
sS'hsa-miR-3689f'
p741
S'TGTGATATCGTGCTTCCTGGGA'
p742
sS'hsa-miR-495-5p'
p743
S'GAAGTTGCCCATGTTATTTTCG'
p744
sS'hsa-miR-3689d'
p745
S'GGGAGGTGTGATCTCACACTCG'
p746
sS'hsa-miR-3689c'
p747
S'CTGGGAGGTGTGATATTGTGGT'
p748
sS'hsa-miR-545-3p'
p749
S'TCAGCAAACATTTATTGTGTGC'
p750
sS'hsa-miR-4799-5p'
p751
S'ATCTAAATGCAGCATGCCAGTC'
p752
sS'hsa-miR-3065-5p'
p753
S'TCAACAAAATCACTGATGCTGGA'
p754
sS'hsa-miR-136-3p'
p755
S'CATCATCGTCTCAAATGAGTCT'
p756
sS'hsa-miR-4798-5p'
p757
S'TTCGGTATACTTTGTGAATTGG'
p758
sS'hsa-miR-4778-5p'
p759
S'AATTCTGTAAAGGAAGAAGAGG'
p760
sS'hsa-miR-4707-5p'
p761
S'GCCCCGGCGCGGGCGGGTTCTGG'
p762
sS'hsa-miR-4433b-3p'
p763
S'CAGGAGTGGGGGGTGGGACGT'
p764
sS'hsa-miR-624-5p'
p765
S'TAGTACCAGTACCTTGTGTTCA'
p766
sS'hsa-miR-548ap-3p'
p767
S'AAAAACCACAATTACTTTT'
p768
sS'hsa-miR-3605-3p'
p769
S'CCTCCGTGTTACCTGTCCTCTAG'
p770
sS'hsa-miR-302b-5p'
p771
S'ACTTTAACATGGAAGTGCTTTC'
p772
sS'hsa-miR-3713'
p773
S'GGTATCCGTTTGGGGATGGT'
p774
sS'hsa-miR-664b-3p'
p775
S'TTCATTTGCCTCCCAGCCTACA'
p776
sS'hsa-miR-549a'
p777
S'TGACAACTATGGATGAGCTCT'
p778
sS'hsa-miR-5584-3p'
p779
S'TAGTTCTTCCCTTTGCCCAATT'
p780
sS'hsa-miR-4704-5p'
p781
S'GACACTAGGCATGTGAGTGATT'
p782
sS'hsa-miR-188-3p'
p783
S'CTCCCACATGCAGGGTTTGCA'
p784
sS'hsa-miR-6881-3p'
p785
S'ATCCTCTTTCGTCCTTCCCACT'
p786
sS'hsa-miR-4529-5p'
p787
S'AGGCCATCAGCAGTCCAATGAA'
p788
sS'hsa-miR-6749-3p'
p789
S'CTCCTCCCCTGCCTGGCCCAG'
p790
sS'hsa-miR-664a-3p'
p791
S'TATTCATTTATCCCCAGCCTACA'
p792
sS'hsa-miR-6865-5p'
p793
S'TAGGTGGCAGAGGAGGGACTTCA'
p794
sS'hsa-miR-4706'
p795
S'AGCGGGGAGGAAGTGGGCGCTGCTT'
p796
sS'hsa-miR-4705'
p797
S'TCAATCACTTGGTAATTGCTGT'
p798
sS'hsa-miR-3120-3p'
p799
S'CACAGCAAGTGTAGACAGGCA'
p800
sS'hsa-miR-518a-3p'
p801
S'GAAAGCGCTTCCCTTTGCTGGA'
p802
sS'hsa-miR-5587-3p'
p803
S'GCCCCGGGCAGTGTGATCATC'
p804
sS'hsa-miR-6811-3p'
p805
S'AGCCTGTGCTTGTCCCTGCAG'
p806
sS'hsa-miR-6760-3p'
p807
S'ACACTGTCCCCTTCTCCCCAG'
p808
sS'hsa-miR-138-1-3p'
p809
S'GCTACTTCACAACACCAGGGCC'
p810
sS'hsa-miR-2392'
p811
S'TAGGATGGGGGTGAGAGGTG'
p812
sS'hsa-miR-497-5p'
p813
S'CAGCAGCACACTGTGGTTTGT'
p814
sS'hsa-miR-371b-3p'
p815
S'AAGTGCCCCCACAGTTTGAGTGC'
p816
sS'hsa-miR-5089-3p'
p817
S'ATGCTACTCGGAAATCCCACTGA'
p818
sS'hsa-miR-519b-3p'
p819
S'AAAGTGCATCCTTTTAGAGGTT'
p820
sS'hsa-miR-330-3p'
p821
S'GCAAAGCACACGGCCTGCAGAGA'
p822
sS'hsa-miR-6502-5p'
p823
S'AGCTCTAGAAAGATTGTTGACC'
p824
sS'hsa-miR-6806-5p'
p825
S'TGTAGGCATGAGGCAGGGCCCAGG'
p826
sS'hsa-miR-6511a-3p'
p827
S'CCTCACCATCCCTTCTGCCTGC'
p828
sS'hsa-miR-514b-3p'
p829
S'ATTGACACCTCTGTGAGTGGA'
p830
sS'hsa-miR-654-3p'
p831
S'TATGTCTGCTGACCATCACCTT'
p832
sS'hsa-miR-6795-5p'
p833
S'TGGGGGGACAGGATGAGAGGCTGT'
p834
sS'hsa-miR-205-5p'
p835
S'TCCTTCATTCCACCGGAGTCTG'
p836
sS'hsa-miR-4637'
p837
S'TACTAACTGCAGATTCAAGTGA'
p838
sS'hsa-miR-4636'
p839
S'AACTCGTGTTCAAAGCCTTTAG'
p840
sS'hsa-miR-519d-5p'
p841
S'CCTCCAAAGGGAAGCGCTTTCTGTT'
p842
sS'hsa-miR-4634'
p843
S'CGGCGCGACCGGCCCGGGG'
p844
sS'hsa-miR-367-3p'
p845
S'AATTGCACTTTAGCAATGGTGA'
p846
sS'hsa-miR-518e-3p'
p847
S'AAAGCGCTTCCCTTCAGAGTG'
p848
sS'hsa-miR-652-5p'
p849
S'CAACCCTAGGAGAGGGTGCCATTCA'
p850
sS'hsa-miR-6815-3p'
p851
S'TGGCTTCTCTTGCACACCCAG'
p852
sS'hsa-miR-298'
p853
S'AGCAGAAGCAGGGAGGTTCTCCCA'
p854
sS'hsa-miR-297'
p855
S'ATGTATGTGTGCATGTGCATG'
p856
sS'hsa-miR-4640-5p'
p857
S'TGGGCCAGGGAGCAGCTGGTGGG'
p858
sS'hsa-miR-1468-3p'
p859
S'AGCAAAATAAGCAAATGGAAAA'
p860
sS'hsa-miR-3152-5p'
p861
S'ATTGCCTCTGTTCTAACACAAG'
p862
sS'hsa-miR-6090'
p863
S'GGGGAGCGAGGGGCGGGGC'
p864
sS'hsa-miR-618'
p865
S'AAACTCTACTTGTCCTTCTGAGT'
p866
sS'hsa-miR-488-3p'
p867
S'TTGAAAGGCTATTTCTTGGTC'
p868
sS'hsa-miR-612'
p869
S'GCTGGGCAGGGCTTCTGAGCTCCTT'
p870
sS'hsa-miR-613'
p871
S'AGGAATGTTCCTTCTTTGCC'
p872
sS'hsa-miR-610'
p873
S'TGAGCTAAATGTGTGCTGGGA'
p874
sS'hsa-miR-611'
p875
S'GCGAGGACCCCTCGGGGTCTGAC'
p876
sS'hsa-miR-450b-5p'
p877
S'TTTTGCAATATGTTCCTGAATA'
p878
sS'hsa-miR-617'
p879
S'AGACTTCCCATTTGAAGGTGGC'
p880
sS'hsa-miR-614'
p881
S'GAACGCCTGTTCTTGCCAGGTGG'
p882
sS'hsa-miR-6508-5p'
p883
S'TCTAGAAATGCATGACCCACC'
p884
sS'hsa-miR-3150a-3p'
p885
S'CTGGGGAGATCCTCGAGGTTGG'
p886
sS'hsa-miR-4692'
p887
S'TCAGGCAGTGTGGGTATCAGAT'
p888
sS'hsa-miR-4528'
p889
S'TCATTATATGTATGATCTGGAC'
p890
sS'hsa-miR-510-3p'
p891
S'ATTGAAACCTCTAAGAGTGGA'
p892
sS'hsa-miR-4526'
p893
S'GCTGACAGCAGGGCTGGCCGCT'
p894
sS'hsa-miR-4525'
p895
S'GGGGGGATGTGCATGCTGGTT'
p896
sS'hsa-miR-4523'
p897
S'GACCGAGAGGGCCTCGGCTGT'
p898
sS'hsa-miR-4522'
p899
S'TGACTCTGCCTGTAGGCCGGT'
p900
sS'hsa-miR-4521'
p901
S'GCTAAGGAAGTCCTGTGCTCAG'
p902
sS'hsa-miR-520g-3p'
p903
S'ACAAAGTGCTTCCCTTTAGAGTGT'
p904
sS'hsa-miR-4709-3p'
p905
S'TTGAAGAGGAGGTGCTCTGTAGC'
p906
sS'hsa-miR-373-5p'
p907
S'ACTCAAAATGGGGGCGCTTTCC'
p908
sS'hsa-miR-3675-5p'
p909
S'TATGGGGCTTCTGTAGAGATTTC'
p910
sS'hsa-miR-184'
p911
S'TGGACGGAGAACTGATAAGGGT'
p912
sS'hsa-miR-4751'
p913
S'AGAGGACCCGTAGCTGCTAGAAGG'
p914
sS'hsa-miR-548h-3p'
p915
S'CAAAAACCGCAATTACTTTTGCA'
p916
sS'hsa-let-7e-5p'
p917
S'TGAGGTAGGAGGTTGTATAGTT'
p918
sS'hsa-miR-6828-3p'
p919
S'ATCTGCTCTCTTGTTCCCAG'
p920
sS'hsa-miR-4722-5p'
p921
S'GGCAGGAGGGCTGTGCCAGGTTG'
p922
sS'hsa-miR-4758-5p'
p923
S'GTGAGTGGGAGCCGGTGGGGCTG'
p924
sS'hsa-miR-3168'
p925
S'GAGTTCTACAGTCAGAC'
p926
sS'hsa-miR-3169'
p927
S'TAGGACTGTGCTTGGCACATAG'
p928
sS'hsa-miR-3166'
p929
S'CGCAGACAATGCCTACTGGCCTA'
p930
sS'hsa-miR-3167'
p931
S'AGGATTTCAGAAATACTGGTGT'
p932
sS'hsa-miR-3164'
p933
S'TGTGACTTTAAGGGAAATGGCG'
p934
sS'hsa-miR-3165'
p935
S'AGGTGGATGCAATGTGACCTCA'
p936
sS'hsa-miR-3163'
p937
S'TATAAAATGAGGGCAGTAAGAC'
p938
sS'hsa-miR-3161'
p939
S'CTGATAAGAACAGAGGCCCAGAT'
p940
sS'hsa-miR-3136-5p'
p941
S'CTGACTGAATAGGTAGGGTCATT'
p942
sS'hsa-miR-6799-3p'
p943
S'TGCCCTGCATGGTGTCCCCACAG'
p944
sS'hsa-miR-4429'
p945
S'AAAAGCTGGGCTGAGAGGCG'
p946
sS'hsa-miR-3941'
p947
S'TTACACACAACTGAGGATCATA'
p948
sS'hsa-miR-507'
p949
S'TTTTGCACCTTTTGGAGTGAA'
p950
sS'hsa-miR-1225-5p'
p951
S'GTGGGTACGGCCCAGTGGGGGG'
p952
sS'hsa-miR-3943'
p953
S'TAGCCCCCAGGCTTCACTTGGCG'
p954
sS'hsa-miR-449a'
p955
S'TGGCAGTGTATTGTTAGCTGGT'
p956
sS'hsa-miR-1224-3p'
p957
S'CCCCACCTCCTCTCTCCTCAG'
p958
sS'hsa-miR-19b-3p'
p959
S'TGTGCAAATCCATGCAAAACTGA'
p960
sS'hsa-miR-6716-3p'
p961
S'TCCGAACTCTCCATTCCTCTGC'
p962
sS'hsa-miR-1277-3p'
p963
S'TACGTAGATATATATGTATTTT'
p964
sS'hsa-miR-6845-3p'
p965
S'CCTCTCCTCCCTGTGCCCCAG'
p966
sS'hsa-miR-6883-5p'
p967
S'AGGGAGGGTGTGGTATGGATGT'
p968
sS'hsa-miR-4711-5p'
p969
S'TGCATCAGGCCAGAAGACATGAG'
p970
sS'hsa-miR-3064-5p'
p971
S'TCTGGCTGTTGTGGTGTGCAA'
p972
sS'hsa-miR-4427'
p973
S'TCTGAATAGAGTCTGAAGAGT'
p974
sS'hsa-miR-6739-3p'
p975
S'ATTGTTCTGTCTTTCTCCCAG'
p976
sS'hsa-miR-6504-3p'
p977
S'CATTACAGCACAGCCATTCT'
p978
sS'hsa-miR-197-5p'
p979
S'CGGGTAGAGAGGGCAGTGGGAGG'
p980
sS'hsa-miR-299-5p'
p981
S'TGGTTTACCGTCCCACATACAT'
p982
sS'hsa-miR-1271-5p'
p983
S'CTTGGCACCTAGCAAGCACTCA'
p984
sS'hsa-miR-1915-5p'
p985
S'ACCTTGCCTTGCTGCCCGGGCC'
p986
sS'hsa-miR-7157-3p'
p987
S'TCTGTGCTACTGGATGAAGAGT'
p988
sS'hsa-miR-2467-5p'
p989
S'TGAGGCTCTGTTAGCCTTGGCTC'
p990
sS'hsa-miR-8055'
p991
S'CTTTGAGCACATGAGCAGACGGA'
p992
sS'hsa-miR-215-3p'
p993
S'TCTGTCATTTCTTTAGGCCAATA'
p994
sS'hsa-miR-6785-3p'
p995
S'ACATCGCCCCACCTTCCCCAG'
p996
sS'hsa-miR-4750-5p'
p997
S'CTCGGGCGGAGGTGGTTGAGTG'
p998
sS'hsa-miR-25-5p'
p999
S'AGGCGGAGACTTGGGCAATTG'
p1000
sS'hsa-miR-143-3p'
p1001
S'TGAGATGAAGCACTGTAGCTC'
p1002
sS'hsa-miR-7156-3p'
p1003
S'CTGCAGCCACTTGGGGAACTGGT'
p1004
sS'hsa-miR-1288-3p'
p1005
S'TGGACTGCCCTGATCTGGAGA'
p1006
sS'hsa-miR-6727-3p'
p1007
S'TCCTGCCACCTCCTCCGCAG'
p1008
sS'hsa-miR-7855-5p'
p1009
S'TTGGTGAGGACCCCAAGCTCGG'
p1010
sS'hsa-miR-7159-3p'
p1011
S'TTTCTATGTTAGTTGGAAG'
p1012
sS'hsa-miR-1265'
p1013
S'CAGGATGTGGTCAAGTGTTGTT'
p1014
sS'hsa-miR-4768-5p'
p1015
S'ATTCTCTCTGGATCCCATGGAT'
p1016
sS'hsa-miR-548au-5p'
p1017
S'AAAAGTAATTGCGGTTTTTGC'
p1018
sS'hsa-miR-1228-3p'
p1019
S'TCACACCTGCCTCGCCCCCC'
p1020
sS'hsa-miR-140-3p'
p1021
S'TACCACAGGGTAGAACCACGG'
p1022
sS'hsa-miR-605-3p'
p1023
S'AGAAGGCACTATGAGATTTAGA'
p1024
sS'hsa-miR-3945'
p1025
S'AGGGCATAGGAGAGGGTTGATAT'
p1026
sS'hsa-miR-8053'
p1027
S'TGGCGATTTTGGAACTCAATGGCA'
p1028
sS'hsa-miR-8052'
p1029
S'CGGGACTGTAGAGGGCATGAGC'
p1030
sS'hsa-miR-6761-5p'
p1031
S'TCTGAGAGAGCTCGATGGCAG'
p1032
sS'hsa-miR-8057'
p1033
S'GTGGCTCTGTAGTAAGATGGA'
p1034
sS'hsa-miR-8056'
p1035
S'CGTGGATTGTCTGGATGCAT'
p1036
sS'hsa-miR-211-3p'
p1037
S'GCAGGGACAGCAAAGGGGTGC'
p1038
sS'hsa-miR-6781-3p'
p1039
S'TGCCTCTTTTCCACGGCCTCAG'
p1040
sS'hsa-miR-8059'
p1041
S'GGGGAACTGTAGATGAAAAGGC'
p1042
sS'hsa-miR-8058'
p1043
S'CTGGACTTTGATCTTGCCATAA'
p1044
sS'hsa-miR-7161-3p'
p1045
S'TAGATCTTTGACTCTGGCAGTCTCCAGG'
p1046
sS'hsa-miR-3677-5p'
p1047
S'CAGTGGCCAGAGCCCTGCAGTG'
p1048
sS'hsa-miR-4666a-5p'
p1049
S'ATACATGTCAGATTGTATGCC'
p1050
sS'hsa-miR-181a-2-3p'
p1051
S'ACCACTGACCGTTGACTGTACC'
p1052
sS'hsa-miR-196b-5p'
p1053
S'TAGGTAGTTTCCTGTTGTTGGG'
p1054
sS'hsa-miR-6856-3p'
p1055
S'TACAGCCCTGTGATCTTTCCAG'
p1056
sS'hsa-miR-6796-5p'
p1057
S'TTGTGGGGTTGGAGAGCTGGCTG'
p1058
sS'hsa-miR-3144-3p'
p1059
S'ATATACCTGTTCGGTCTCTTTA'
p1060
sS'hsa-miR-513b-5p'
p1061
S'TTCACAAGGAGGTGTCATTTAT'
p1062
sS'hsa-miR-4756-3p'
p1063
S'CCAGAGATGGTTGCCTTCCTAT'
p1064
sS'hsa-miR-148a-3p'
p1065
S'TCAGTGCACTACAGAACTTTGT'
p1066
sS'hsa-miR-6510-3p'
p1067
S'CACCGACTCTGTCTCCTGCAG'
p1068
sS'hsa-miR-6730-5p'
p1069
S'AGAAAGGTGGAGGGGTTGTCAGA'
p1070
sS'hsa-miR-885-3p'
p1071
S'AGGCAGCGGGGTGTAGTGGATA'
p1072
sS'hsa-miR-1260b'
p1073
S'ATCCCACCACTGCCACCAT'
p1074
sS'hsa-miR-517a-3p'
p1075
S'ATCGTGCATCCCTTTAGAGTGT'
p1076
sS'hsa-miR-6867-5p'
p1077
S'TGTGTGTGTAGAGGAAGAAGGGA'
p1078
sS'hsa-miR-93-5p'
p1079
S'CAAAGTGCTGTTCGTGCAGGTAG'
p1080
sS'hsa-miR-574-5p'
p1081
S'TGAGTGTGTGTGTGTGAGTGTGT'
p1082
sS'hsa-miR-1909-3p'
p1083
S'CGCAGGGGCCGGGTGCTCACCG'
p1084
sS'hsa-miR-3619-3p'
p1085
S'GGGACCATCCTGCCTGCTGTGG'
p1086
sS'hsa-miR-6824-3p'
p1087
S'TCTCTGGTCTTGCCACCCCAG'
p1088
sS'hsa-miR-4755-3p'
p1089
S'AGCCAGGCTCTGAAGGGAAAGT'
p1090
sS'hsa-miR-4655-5p'
p1091
S'CACCGGGGATGGCAGAGGGTCG'
p1092
sS'hsa-miR-148b-3p'
p1093
S'TCAGTGCATCACAGAACTTTGT'
p1094
sS'hsa-miR-6826-5p'
p1095
S'TCAATAGGAAAGAGGTGGGACCT'
p1096
sS'hsa-miR-4716-5p'
p1097
S'TCCATGTTTCCTTCCCCCTTCT'
p1098
sS'hsa-miR-3140-3p'
p1099
S'AGCTTTTGGGAATTCAGGTAGT'
p1100
sS'hsa-miR-4753-5p'
p1101
S'CAAGGCCAAAGGAAGAGAACAG'
p1102
sS'hsa-miR-146a-5p'
p1103
S'TGAGAACTGAATTCCATGGGTT'
p1104
sS'hsa-miR-589-5p'
p1105
S'TGAGAACCACGTCTGCTCTGAG'
p1106
sS'hsa-miR-597-5p'
p1107
S'TGTGTCACTCGATGACCACTGT'
p1108
sS'hsa-miR-133a-3p'
p1109
S'TTTGGTCCCCTTCAACCAGCTG'
p1110
sS'hsa-miR-138-5p'
p1111
S'AGCTGGTGTTGTGAATCAGGCCG'
p1112
sS'hsa-miR-6778-3p'
p1113
S'TGCCTCCCTGACATTCCACAG'
p1114
sS'hsa-miR-1236-3p'
p1115
S'CCTCTTCCCCTTGTCTCTCCAG'
p1116
sS'hsa-miR-1266-5p'
p1117
S'CCTCAGGGCTGTAGAACAGGGCT'
p1118
sS'hsa-miR-526a'
p1119
S'CTCTAGAGGGAAGCACTTTCTG'
p1120
sS'hsa-miR-4536-5p'
p1121
S'TGTGGTAGATATATGCACGAT'
p1122
sS'hsa-miR-6838-5p'
p1123
S'AAGCAGCAGTGGCAAGACTCCT'
p1124
sS'hsa-miR-6844'
p1125
S'TTCTTTGTTTTTAATTCACAG'
p1126
sS'hsa-miR-132-3p'
p1127
S'TAACAGTCTACAGCCATGGTCG'
p1128
sS'hsa-miR-203a-3p'
p1129
S'GTGAAATGTTTAGGACCACTAG'
p1130
sS'hsa-miR-28-5p'
p1131
S'AAGGAGCTCACAGTCTATTGAG'
p1132
sS'hsa-miR-671-5p'
p1133
S'AGGAAGCCCTGGAGGGGCTGGAG'
p1134
sS'hsa-miR-670-3p'
p1135
S'TTTCCTCATATTCATTCAGGA'
p1136
sS'hsa-miR-4436a'
p1137
S'GCAGGACAGGCAGAAGTGGAT'
p1138
sS'hsa-miR-151a-3p'
p1139
S'CTAGACTGAAGCTCCTTGAGG'
p1140
sS'hsa-miR-1304-5p'
p1141
S'TTTGAGGCTACAGTGAGATGTG'
p1142
sS'hsa-miR-4762-3p'
p1143
S'CTTCTGATCAAGATTTGTGGTG'
p1144
sS'hsa-miR-4650-3p'
p1145
S'AGGTAGAATGAGGCCTGACAT'
p1146
sS'hsa-miR-4730'
p1147
S'CTGGCGGAGCCCATTCCATGCCA'
p1148
sS'hsa-miR-4736'
p1149
S'AGGCAGGTTATCTGGGCTG'
p1150
sS'hsa-miR-4737'
p1151
S'ATGCGAGGATGCTGACAGTG'
p1152
sS'hsa-miR-4734'
p1153
S'GCTGCGGGCTGCGGTCAGGGCG'
p1154
sS'hsa-miR-2116-3p'
p1155
S'CCTCCCATGCCAAGAACTCCC'
p1156
sS'hsa-miR-4728-5p'
p1157
S'TGGGAGGGGAGAGGCAGCAAGCA'
p1158
sS'hsa-miR-4739'
p1159
S'AAGGGAGGAGGAGCGGAGGGGCCCT'
p1160
sS'hsa-miR-1301-3p'
p1161
S'TTGCAGCTGCCTGGGAGTGACTTC'
p1162
sS'hsa-miR-3143'
p1163
S'ATAACATTGTAAAGCGCTTCTTTCG'
p1164
sS'hsa-miR-5195-5p'
p1165
S'AACCCCTAAGGCAACTGGATGG'
p1166
sS'hsa-miR-1307-5p'
p1167
S'TCGACCGGACCTCGACCGGCT'
p1168
sS'hsa-miR-21-3p'
p1169
S'CAACACCAGTCGATGGGCTGT'
p1170
sS'hsa-miR-3146'
p1171
S'CATGCTAGGATAGAAAGAATGG'
p1172
sS'hsa-miR-6825-5p'
p1173
S'TGGGGAGGTGTGGAGTCAGCAT'
p1174
sS'hsa-miR-4667-5p'
p1175
S'ACTGGGGAGCAGAAGGAGAACC'
p1176
sS'hsa-miR-2115-3p'
p1177
S'CATCAGAATTCATGGAGGCTAG'
p1178
sS'hsa-miR-1199-5p'
p1179
S'CCTGAGCCCGGGCCGCGCAG'
p1180
sS'hsa-miR-6751-3p'
p1181
S'ACTGAGCCTCTCTCTCTCCAG'
p1182
sS'hsa-miR-548n'
p1183
S'CAAAAGTAATTGTGGATTTTGT'
p1184
sS'hsa-miR-548m'
p1185
S'CAAAGGTATTTGTGGTTTTTG'
p1186
sS'hsa-miR-548l'
p1187
S'AAAAGTATTTGCGGGTTTTGTC'
p1188
sS'hsa-miR-548k'
p1189
S'AAAAGTACTTGCGGATTTTGCT'
p1190
sS'hsa-miR-548i'
p1191
S'AAAAGTAATTGCGGATTTTGCC'
p1192
sS'hsa-miR-642b-5p'
p1193
S'GGTTCCCTCTCCAAATGTGTCT'
p1194
sS'hsa-miR-376c-5p'
p1195
S'GGTGGATATTCCTTCTATGTT'
p1196
sS'hsa-miR-548z'
p1197
S'CAAAAACCGCAATTACTTTTGCA'
p1198
sS'hsa-miR-424-5p'
p1199
S'CAGCAGCAATTCATGTTTTGAA'
p1200
sS'hsa-miR-548w'
p1201
S'AAAAGTAACTGCGGTTTTTGCCT'
p1202
sS'hsa-miR-548v'
p1203
S'AGCTACAGTTACTTTTGCACCA'
p1204
sS'hsa-miR-548u'
p1205
S'CAAAGACTGCAATTACTTTTGCG'
p1206
sS'hsa-miR-548s'
p1207
S'ATGGCCAAAACTGCAGTTATTTT'
p1208
sS'hsa-miR-548q'
p1209
S'GCTGGTGCAAAAGTAATGGCGG'
p1210
sS'hsa-miR-548p'
p1211
S'TAGCAAAAACTGCAGTTACTTT'
p1212
sS'hsa-miR-9-5p'
p1213
S'TCTTTGGTTATCTAGCTGTATGA'
p1214
sS'hsa-miR-598-5p'
p1215
S'GCGGTGATCCCGATGGTGTGAGC'
p1216
sS'hsa-miR-4793-5p'
p1217
S'ACATCCTGCTCCACAGGGCAGAGG'
p1218
sS'hsa-miR-23a-5p'
p1219
S'GGGGTTCCTGGGGATGGGATTT'
p1220
sS'hsa-miR-7641'
p1221
S'TTGATCTCGGAAGCTAAGC'
p1222
sS'hsa-miR-6068'
p1223
S'CCTGCGAGTCTCCGGCGGTGG'
p1224
sS'hsa-miR-6069'
p1225
S'GGGCTAGGGCCTGCTGCCCCC'
p1226
sS'hsa-miR-665'
p1227
S'ACCAGGAGGCTGAGGCCCCT'
p1228
sS'hsa-miR-6743-5p'
p1229
S'AAGGGGCAGGGACGGGTGGCCC'
p1230
sS'hsa-miR-662'
p1231
S'TCCCACGTTGTGGCCCAGCAG'
p1232
sS'hsa-miR-661'
p1233
S'TGCCTGGGTCTCTGGCCTGCGCGT'
p1234
sS'hsa-miR-4518'
p1235
S'GCTCAGGGATGATAACTGTGCTGAGA'
p1236
sS'hsa-miR-4519'
p1237
S'CAGCAGTGCGCAGGGCTG'
p1238
sS'hsa-miR-4512'
p1239
S'CAGGGCCTCACTGTATCGCCCA'
p1240
sS'hsa-miR-4513'
p1241
S'AGACTGACGGCTGGAGGCCCAT'
p1242
sS'hsa-miR-4510'
p1243
S'TGAGGGAGTAGGATGTATGGTT'
p1244
sS'hsa-miR-4511'
p1245
S'GAAGAACTGTTGCATTTGCCCT'
p1246
sS'hsa-miR-4516'
p1247
S'GGGAGAAGGGTCGGGGC'
p1248
sS'hsa-miR-4517'
p1249
S'AAATATGATGAAACTCACAGCTGAG'
p1250
sS'hsa-miR-4514'
p1251
S'ACAGGCAGGATTGGGGAA'
p1252
sS'hsa-miR-4515'
p1253
S'AGGACTGGACTCCCGGCAGCCC'
p1254
sS'hsa-miR-4789-5p'
p1255
S'GTATACACCTGATATGTGTATG'
p1256
sS'hsa-miR-550a-5p'
p1257
S'AGTGCCTGAGGGAGTAAGAGCCC'
p1258
sS'hsa-miR-6716-5p'
p1259
S'TGGGAATGGGGGTAAGGGCC'
p1260
sS'hsa-miR-409-5p'
p1261
S'AGGTTACCCGAGCAACTTTGCAT'
p1262
sS'hsa-miR-4436b-3p'
p1263
S'CAGGGCAGGAAGAAGTGGACAA'
p1264
sS'hsa-miR-4677-5p'
p1265
S'TTGTTCTTTGGTCTTTCAGCCA'
p1266
sS'hsa-miR-6503-5p'
p1267
S'AGGTCTGCATTCAAATCCCCAGA'
p1268
sS'hsa-miR-6755-3p'
p1269
S'TGTTGTCATGTTTTTTCCCTAG'
p1270
sS'hsa-miR-7153-3p'
p1271
S'CACCATGGACGGTTTACC'
p1272
sS'hsa-miR-7160-5p'
p1273
S'TGCTGAGGTCCGGGCTGTGCC'
p1274
sS'hsa-miR-4445-3p'
p1275
S'CACGGCAAAAGAAACAATCCA'
p1276
sS'hsa-miR-5002-5p'
p1277
S'AATTTGGTTTCTGAGGCACTTAGT'
p1278
sS'hsa-miR-3179'
p1279
S'AGAAGGGGTGAAATTTAAACGT'
p1280
sS'hsa-miR-3178'
p1281
S'GGGGCGCGGCCGGATCG'
p1282
sS'hsa-miR-128-3p'
p1283
S'TCACAGTGAACCGGTCTCTTT'
p1284
sS'hsa-miR-95-3p'
p1285
S'TTCAACGGGTATTTATTGAGCA'
p1286
sS'hsa-miR-3171'
p1287
S'AGATGTATGGAATCTGTATATATC'
p1288
sS'hsa-miR-3170'
p1289
S'CTGGGGTTCTGAGACAGACAGT'
p1290
sS'hsa-miR-642a-5p'
p1291
S'GTCCCTCTCCAAATGTGTCTTG'
p1292
sS'hsa-miR-451a'
p1293
S'AAACCGTTACCATTACTGAGTT'
p1294
sS'hsa-miR-3175'
p1295
S'CGGGGAGAGAACGCAGTGACGT'
p1296
sS'hsa-miR-3174'
p1297
S'TAGTGAGTTAGAGATGCAGAGCC'
p1298
sS'hsa-miR-3176'
p1299
S'ACTGGCCTGGGACTACCGG'
p1300
sS'hsa-miR-4720-5p'
p1301
S'CCTGGCATATTTGGTATAACTT'
p1302
sS'hsa-miR-4646-3p'
p1303
S'ATTGTCCCTCTCCCTTCCCAG'
p1304
sS'hsa-miR-514a-5p'
p1305
S'TACTCTGGAGAGTGACAATCATG'
p1306
sS'hsa-miR-6753-5p'
p1307
S'CACCAGGGCAGAGCAGGGCTGA'
p1308
sS'hsa-miR-1260a'
p1309
S'ATCCCACCTCTGCCACCA'
p1310
sS'hsa-miR-208a-5p'
p1311
S'GAGCTTTTGGCCCGGGTTATAC'
p1312
sS'hsa-miR-4781-3p'
p1313
S'AATGTTGGAATCCTCGCTAGAG'
p1314
sS'hsa-miR-541-3p'
p1315
S'TGGTGGGCACAGAATCTGGACT'
p1316
sS'hsa-miR-6735-3p'
p1317
S'AGGCCTGTGGCTCCTCCCTCAG'
p1318
sS'hsa-miR-106a-5p'
p1319
S'AAAAGTGCTTACAGTGCAGGTAG'
p1320
sS'hsa-miR-7155-3p'
p1321
S'TGGCCCAAGACCTCAGACC'
p1322
sS'hsa-miR-548d-5p'
p1323
S'AAAAGTAATTGTGGTTTTTGCC'
p1324
sS'hsa-miR-381-5p'
p1325
S'AGCGAGGTTGCCCTTTGTATAT'
p1326
sS'hsa-miR-3117-5p'
p1327
S'AGACACTATACGAGTCATAT'
p1328
sS'hsa-miR-548o-5p'
p1329
S'AAAAGTAATTGCGGTTTTTGCC'
p1330
sS'hsa-miR-5189-5p'
p1331
S'TCTGGGCACAGGCGGATGGACAGG'
p1332
sS'hsa-miR-942-5p'
p1333
S'TCTTCTCTGTTTTGGCCATGTG'
p1334
sS'hsa-miR-6848-3p'
p1335
S'GTGGTCTCTTGGCCCCCAG'
p1336
sS'hsa-miR-30c-1-3p'
p1337
S'CTGGGAGAGGGTTGTTTACTCC'
p1338
sS'hsa-miR-548j-3p'
p1339
S'CAAAAACTGCATTACTTTTGC'
p1340
sS'hsa-miR-6741-5p'
p1341
S'GTGGGTGCTGGTGGGAGCCGTG'
p1342
sS'hsa-miR-3126-3p'
p1343
S'CATCTGGCATCCGTCACACAGA'
p1344
sS'hsa-miR-302c-5p'
p1345
S'TTTAACATGGGGGTACCTGCTG'
p1346
sS'hsa-miR-103b'
p1347
S'TCATAGCCCTGTACAATGCTGCT'
p1348
sS'hsa-miR-342-3p'
p1349
S'TCTCACACAGAAATCGCACCCGT'
p1350
sS'hsa-miR-5187-3p'
p1351
S'ACTGAATCCTCTTTTCCTCAG'
p1352
sS'hsa-miR-4774-3p'
p1353
S'ATTGCCTAACATGTGCCAGAA'
p1354
sS'hsa-miR-1238-3p'
p1355
S'CTTCCTCGTCTGTCTGCCCC'
p1356
sS'hsa-miR-4520-5p'
p1357
S'CCTGCGTGTTTTCTGTCCAA'
p1358
sS'hsa-miR-6852-3p'
p1359
S'TGTCCTCTGTTCCTCAG'
p1360
sS'hsa-miR-501-5p'
p1361
S'AATCCTTTGTCCCTGGGTGAGA'
p1362
sS'hsa-miR-219a-5p'
p1363
S'TGATTGTCCAAACGCAATTCT'
p1364
sS'hsa-miR-452-3p'
p1365
S'CTCATCTGCAAAGAAGTAAGTG'
p1366
sS'hsa-miR-6133'
p1367
S'TGAGGGAGGAGGTTGGGTA'
p1368
sS'hsa-miR-3130-3p'
p1369
S'GCTGCACCGGAGACTGGGTAA'
p1370
sS'hsa-miR-6734-3p'
p1371
S'CCCTTCCCTCACTCTTCTCTCAG'
p1372
sS'hsa-miR-23b-5p'
p1373
S'TGGGTTCCTGGCATGCTGATTT'
p1374
sS'hsa-miR-4777-3p'
p1375
S'ATACCTCATCTAGAATGCTGTA'
p1376
sS'hsa-miR-4766-3p'
p1377
S'ATAGCAATTGCTCTTTTGGAA'
p1378
sS'hsa-miR-4713-5p'
p1379
S'TTCTCCCACTACCAGGCTCCCA'
p1380
sS'hsa-miR-18a-3p'
p1381
S'ACTGCCCTAAGTGCTCCTTCTGG'
p1382
sS'hsa-miR-524-3p'
p1383
S'GAAGGCGCTTCCCTTTGGAGT'
p1384
sS'hsa-miR-3691-5p'
p1385
S'AGTGGATGATGGAGACTCGGTAC'
p1386
sS'hsa-miR-8069'
p1387
S'GGATGGTTGGGGGCGGTCGGCGT'
p1388
sS'hsa-miR-4632-3p'
p1389
S'TGCCGCCCTCTCGCTGCTCTAG'
p1390
sS'hsa-miR-8067'
p1391
S'CCTAGAAACTGTAAACTTAGTC'
p1392
sS'hsa-miR-548x-3p'
p1393
S'TAAAAACTGCAATTACTTTC'
p1394
sS'hsa-miR-382-5p'
p1395
S'GAAGTTGTTCGTGGTGGATTCG'
p1396
sS'hsa-miR-520f-5p'
p1397
S'CCTCTAAAGGGAAGCGCTTTCT'
p1398
sS'hsa-miR-8063'
p1399
S'TCAAAATCAGGAGTCGGGGCTT'
p1400
sS'hsa-miR-8060'
p1401
S'CCATGAAGCAGTGGGTAGGAGGAC'
p1402
sS'hsa-miR-4716-3p'
p1403
S'AAGGGGGAAGGAAACATGGAGA'
p1404
sS'hsa-miR-383-5p'
p1405
S'AGATCAGAAGGTGATTGTGGCT'
p1406
sS'hsa-miR-4283'
p1407
S'TGGGGCTCAGCGAGTTT'
p1408
sS'hsa-miR-4280'
p1409
S'GAGTGTAGTTCTGAGCAGAGC'
p1410
sS'hsa-miR-4281'
p1411
S'GGGTCCCGGGGAGGGGGG'
p1412
sS'hsa-miR-4286'
p1413
S'ACCCCACTCCTGGTACC'
p1414
sS'hsa-miR-4287'
p1415
S'TCTCCCTTGAGGGCACTTT'
p1416
sS'hsa-miR-4284'
p1417
S'GGGCTCACATCACCCCAT'
p1418
sS'hsa-miR-4285'
p1419
S'GCGGCGAGTCCGACTCAT'
p1420
sS'hsa-miR-4288'
p1421
S'TTGTCTGCTGAGTTTCC'
p1422
sS'hsa-miR-4289'
p1423
S'GCATTGTGCAGGGCTATCA'
p1424
sS'hsa-miR-3692-5p'
p1425
S'CCTGCTGGTCAGGAGTGGATACTG'
p1426
sS'hsa-miR-4747-3p'
p1427
S'AAGGCCCGGGCTTTCCTCCCAG'
p1428
sS'hsa-miR-127-5p'
p1429
S'CTGAAGCTCAGAGGGCTCTGAT'
p1430
sS'hsa-miR-6718-5p'
p1431
S'TAGTGGTCAGAGGGCTTATGA'
p1432
sS'hsa-miR-5088-5p'
p1433
S'CAGGGCTCAGGGATTGGATGGAGG'
p1434
sS'hsa-miR-30e-3p'
p1435
S'CTTTCAGTCGGATGTTTACAGC'
p1436
sS'hsa-miR-4482-3p'
p1437
S'TTTCTATTTCTCAGTGGGGCTC'
p1438
sS'hsa-miR-766-5p'
p1439
S'AGGAGGAATTGGTGCTGGTCTT'
p1440
sS'hsa-miR-6886-3p'
p1441
S'TGCCCTTCTCTCCTCCTGCCT'
p1442
sS'hsa-miR-6758-5p'
p1443
S'TAGAGAGGGGAAGGATGTGATGT'
p1444
sS'hsa-miR-888-3p'
p1445
S'GACTGACACCTCTTTGGGTGAA'
p1446
sS'hsa-miR-6759-3p'
p1447
S'TGACCTTTGCCTCTCCCCTCAG'
p1448
sS'hsa-miR-3664-5p'
p1449
S'AACTCTGTCTTCACTCATGAGT'
p1450
sS'hsa-miR-6818-3p'
p1451
S'TTGTCTCTTGTTCCTCACACAG'
p1452
sS'hsa-miR-548f-3p'
p1453
S'AAAAACTGTAATTACTTTT'
p1454
sS'hsa-miR-124-5p'
p1455
S'CGTGTTCACAGCGGACCTTGAT'
p1456
sS'hsa-let-7b-3p'
p1457
S'CTATACAACCTACTGCCTTCCC'
p1458
sS'hsa-miR-5589-5p'
p1459
S'GGCTGGGTGCTCTTGTGCAGT'
p1460
sS'hsa-miR-5591-5p'
p1461
S'TGGGAGCTAAGCTATGGGTAT'
p1462
sS'hsa-miR-4695-3p'
p1463
S'TGATCTCACCGCTGCCTCCTTC'
p1464
sS'hsa-miR-4743-5p'
p1465
S'TGGCCGGATGGGACAGGAGGCAT'
p1466
sS'hsa-miR-4471'
p1467
S'TGGGAACTTAGTAGAGGTTTAA'
p1468
sS'hsa-miR-6748-5p'
p1469
S'TGTGGGTGGGAAGGACTGGATT'
p1470
sS'hsa-miR-5571-5p'
p1471
S'CAATTCTCAAAGGAGCCTCCC'
p1472
sS'hsa-miR-491-3p'
p1473
S'CTTATGCAAGATTCCCTTCTAC'
p1474
sS'hsa-miR-648'
p1475
S'AAGTGTGCAGGGCACTGGT'
p1476
sS'hsa-miR-6846-5p'
p1477
S'TGGGGGCTGGATGGGGTAGAGT'
p1478
sS'hsa-miR-6742-5p'
p1479
S'AGTGGGGTGGGACCCAGCTGTT'
p1480
sS'hsa-miR-4473'
p1481
S'CTAGTGCTCTCCGTTACAAGTA'
p1482
sS'hsa-miR-4472'
p1483
S'GGTGGGGGGTGTTGTTTT'
p1484
sS'hsa-miR-6804-5p'
p1485
S'TGAGGGTGTCAGCAGGTGACG'
p1486
sS'hsa-miR-548a-3p'
p1487
S'CAAAACTGGCAATTACTTTTGC'
p1488
sS'hsa-miR-4798-3p'
p1489
S'AACTCACGAAGTATACCGAAGT'
p1490
sS'hsa-miR-6805-3p'
p1491
S'TTGCTCTGCTCCCCCGCCCCCAG'
p1492
sS'hsa-miR-764'
p1493
S'GCAGGTGCTCACTTGTCCTCCT'
p1494
sS'hsa-miR-6763-5p'
p1495
S'CTGGGGAGTGGCTGGGGAG'
p1496
sS'hsa-miR-25-3p'
p1497
S'CATTGCACTTGTCTCGGTCTGA'
p1498
sS'hsa-miR-765'
p1499
S'TGGAGGAGAAGGAAGGTGATG'
p1500
sS'hsa-miR-1911-3p'
p1501
S'CACCAGGCATTGTGGTCTCC'
p1502
sS'hsa-miR-590-3p'
p1503
S'TAATTTTATGTATAAGCTAGT'
p1504
sS'hsa-miR-664b-5p'
p1505
S'TGGGCTAAGGGAGATGATTGGGTA'
p1506
sS'hsa-miR-6840-3p'
p1507
S'GCCCAGGACTTTGTGCGGGGTG'
p1508
sS'hsa-miR-6869-3p'
p1509
S'CGCCGCGCGCATCGGCTCAGC'
p1510
sS'hsa-miR-6733-3p'
p1511
S'TCAGTGTCTGGATTTCCTAG'
p1512
sS'hsa-miR-493-3p'
p1513
S'TGAAGGTCTACTGTGTGCCAGG'
p1514
sS'hsa-miR-548b-3p'
p1515
S'CAAGAACCTCAGTTGCTTTTGT'
p1516
sS'hsa-miR-548t-3p'
p1517
S'AAAAACCACAATTACTTTTGCACCA'
p1518
sS'hsa-miR-7706'
p1519
S'TGAAGCGCCTGTGCTCTGCCGAGA'
p1520
sS'hsa-miR-7704'
p1521
S'CGGGGTCGGCGGCGACGTG'
p1522
sS'hsa-miR-7705'
p1523
S'AATAGCTCAGAATGTCAGTTCTG'
p1524
sS'hsa-miR-7702'
p1525
S'CTTAGACTGCCAGACTCCCTGA'
p1526
sS'hsa-miR-7703'
p1527
S'TTGCACTCTGGCCTTCTCCCAGG'
p1528
sS'hsa-miR-6865-3p'
p1529
S'ACACCCTCTTTCCCTACCGCC'
p1530
sS'hsa-miR-5579-3p'
p1531
S'TTAGCTTAAGGAGTACCAGATC'
p1532
sS'hsa-miR-4729'
p1533
S'TCATTTATCTGTTGGGAAGCTA'
p1534
sS'hsa-miR-6872-3p'
p1535
S'CCCATGCCTCCTGCCGCGGTC'
p1536
sS'hsa-miR-20a-3p'
p1537
S'ACTGCATTATGAGCACTTAAAG'
p1538
sS'hsa-miR-4721'
p1539
S'TGAGGGCTCCAGGTGACGGTGG'
p1540
sS'hsa-miR-380-5p'
p1541
S'TGGTTGACCATAGAACATGCGC'
p1542
sS'hsa-miR-518a-5p'
p1543
S'CTGCAAAGGGAAGCCCTTTC'
p1544
sS'hsa-miR-6814-5p'
p1545
S'TCCCAAGGGTGAGATGCTGCCA'
p1546
sS'hsa-miR-200a-3p'
p1547
S'TAACACTGTCTGGTAACGATGT'
p1548
sS'hsa-miR-212-3p'
p1549
S'TAACAGTCTCCAGTCACGGCC'
p1550
sS'hsa-miR-3648'
p1551
S'AGCCGCGGGGATCGCCGAGGG'
p1552
sS'hsa-miR-660-3p'
p1553
S'ACCTCCTGTGTGCATGGATTA'
p1554
sS'hsa-miR-6767-3p'
p1555
S'CCACGTGCTTCTCTTTCCGCAG'
p1556
sS'hsa-miR-497-3p'
p1557
S'CAAACCACACTGTGGTGTTAGA'
p1558
sS'hsa-miR-1207-3p'
p1559
S'TCAGCTGGCCCTCATTTC'
p1560
sS'hsa-miR-6832-5p'
p1561
S'AGTAGAGAGGAAAAGTTAGGGTC'
p1562
sS'hsa-miR-6884-5p'
p1563
S'AGAGGCTGAGAAGGTGATGTTG'
p1564
sS'hsa-miR-6502-3p'
p1565
S'TAGACCATCTTTCTAGAGTAT'
p1566
sS'hsa-miR-6885-3p'
p1567
S'CTTTGCTTCCTGCTCCCCTAG'
p1568
sS'hsa-miR-615-5p'
p1569
S'GGGGGTCCCCGGTGCTCGGATC'
p1570
sS'hsa-miR-3151-3p'
p1571
S'CCTGATCCCACAGCCCACCT'
p1572
sS'hsa-miR-3607-5p'
p1573
S'GCATGTGATGAAGCAAATCAGT'
p1574
sS'hsa-miR-6861-3p'
p1575
S'TGGACCTCTCCTCCCCAG'
p1576
sS'hsa-miR-6774-5p'
p1577
S'ACTTGGGCAGGAGGGACCCTGTATG'
p1578
sS'hsa-miR-6822-3p'
p1579
S'AGGCTCTAACTGGCTTTCCCTGCA'
p1580
sS'hsa-miR-519d-3p'
p1581
S'CAAAGTGCCTCCCTTTAGAGTG'
p1582
sS'hsa-miR-367-5p'
p1583
S'ACTGTTGCTAATATGCAACTCT'
p1584
sS'hsa-miR-222-5p'
p1585
S'CTCAGTAGCCAGTGTAGATCCT'
p1586
sS'hsa-miR-223-3p'
p1587
S'TGTCAGTTTGTCAAATACCCCA'
p1588
sS'hsa-miR-3622a-5p'
p1589
S'CAGGCACGGGAGCTCAGGTGAG'
p1590
sS'hsa-miR-323a-3p'
p1591
S'CACATTACACGGTCGACCTCT'
p1592
sS'hsa-miR-3152-3p'
p1593
S'TGTGTTAGAATAGGGGCAATAA'
p1594
sS'hsa-miR-7109-5p'
p1595
S'CTGGGGGGAGGAGACCCTGCT'
p1596
sS'hsa-miR-6077'
p1597
S'GGGAAGAGCTGTACGGCCTTC'
p1598
sS'hsa-miR-224-5p'
p1599
S'CAAGTCACTAGTGGTTCCGTT'
p1600
sS'hsa-miR-6075'
p1601
S'ACGGCCCAGGCGGCATTGGTG'
p1602
sS'hsa-miR-6074'
p1603
S'GATATTCAGAGGCTAGGTGG'
p1604
sS'hsa-miR-6073'
p1605
S'GGTAGTGAGTTATCAGCTAC'
p1606
sS'hsa-miR-6072'
p1607
S'TCCTCATCACACTGCACCTTAG'
p1608
sS'hsa-miR-6071'
p1609
S'TTCTGCTGCCGGCCAAGGC'
p1610
sS'hsa-miR-6070'
p1611
S'CCGGTTCCAGTCCCTGGAG'
p1612
sS'hsa-miR-6079'
p1613
S'TTGGAAGCTTGGACCAACTAGCTG'
p1614
sS'hsa-miR-6078'
p1615
S'CCGCCTGAGCTAGCTGTGG'
p1616
sS'hsa-miR-6829-3p'
p1617
S'TGCCTCCTCCGTGGCCTCAG'
p1618
sS'hsa-miR-6807-5p'
p1619
S'GTGAGCCAGTGGAATGGAGAGG'
p1620
sS'hsa-miR-6894-5p'
p1621
S'AGGAGGATGGAGAGCTGGGCCAGA'
p1622
sS'hsa-miR-5580-5p'
p1623
S'TGCTGGCTCATTTCATATGTGT'
p1624
sS'hsa-miR-516b-5p'
p1625
S'ATCTGGAGGTAAGAAGCACTTT'
p1626
sS'hsa-miR-4505'
p1627
S'AGGCTGGGCTGGGACGGA'
p1628
sS'hsa-miR-4504'
p1629
S'TGTGACAATAGAGATGAACATG'
p1630
sS'hsa-miR-510-5p'
p1631
S'TACTCAGGAGAGTGGCAATCAC'
p1632
sS'hsa-miR-4506'
p1633
S'AAATGGGTGGTCTGAGGCAA'
p1634
sS'hsa-miR-4474-3p'
p1635
S'TTGTGGCTGGTCATGAGGCTAA'
p1636
sS'hsa-miR-4500'
p1637
S'TGAGGTAGTAGTTTCTT'
p1638
sS'hsa-miR-4503'
p1639
S'TTTAAGCAGGAAATAGAATTTA'
p1640
sS'hsa-miR-4502'
p1641
S'GCTGATGATGATGGTGCTGAAG'
p1642
sS'hsa-miR-487b-3p'
p1643
S'AATCGTACAGGGTCATCCACTT'
p1644
sS'hsa-miR-4509'
p1645
S'ACTAAAGGATATAGAAGGTTTT'
p1646
sS'hsa-miR-4508'
p1647
S'GCGGGGCTGGGCGCGCG'
p1648
sS'hsa-miR-3679-5p'
p1649
S'TGAGGATATGGCAGGGAAGGGGA'
p1650
sS'hsa-miR-4709-5p'
p1651
S'ACAACAGTGACTTGCTCTCCAA'
p1652
sS'hsa-miR-582-3p'
p1653
S'TAACTGGTTGAACAACTGAACC'
p1654
sS'hsa-miR-1227-5p'
p1655
S'GTGGGGCCAGGCGGTGG'
p1656
sS'hsa-let-7e-3p'
p1657
S'CTATACGGCCTCCTAGCTTTCC'
p1658
sS'hsa-miR-149-3p'
p1659
S'AGGGAGGGACGGGGGCTGTGC'
p1660
sS'hsa-miR-3185'
p1661
S'AGAAGAAGGCGGTCGGTCTGCGG'
p1662
sS'hsa-miR-3180'
p1663
S'TGGGGCGGAGCTTCCGGAG'
p1664
sS'hsa-miR-3181'
p1665
S'ATCGGGCCCTCGGCGCCGG'
p1666
sS'hsa-miR-3182'
p1667
S'GCTTCTGTAGTGTAGTC'
p1668
sS'hsa-miR-3183'
p1669
S'GCCTCTCTCGGAGTCGCTCGGA'
p1670
sS'hsa-miR-3188'
p1671
S'AGAGGCTTTGTGCGGATACGGGG'
p1672
sS'hsa-miR-6503-3p'
p1673
S'GGGACTAGGATGCAGACCTCC'
p1674
sS'hsa-miR-5581-5p'
p1675
S'AGCCTTCCAGGAGAAATGGAGA'
p1676
sS'hsa-miR-324-5p'
p1677
S'CGCATCCCCTAGGGCATTGGTGT'
p1678
sS'hsa-miR-1224-5p'
p1679
S'GTGAGGACTCGGGAGGTGG'
p1680
sS'hsa-miR-300'
p1681
S'TATACAAGGGCAGACTCTCTCT'
p1682
sS'hsa-miR-3160-3p'
p1683
S'AGAGCTGAGACTAGAAAGCCCA'
p1684
sS'hsa-miR-2681-5p'
p1685
S'GTTTTACCACCTCCAGGAGACT'
p1686
sS'hsa-miR-4763-5p'
p1687
S'CGCCTGCCCAGCCCTCCTGCT'
p1688
sS'hsa-miR-4639-3p'
p1689
S'TCACTCTCACCTTGCTTTGC'
p1690
sS'hsa-miR-5583-5p'
p1691
S'AAACTAATATACCCATATTCTG'
p1692
sS'hsa-miR-199b-5p'
p1693
S'CCCAGTGTTTAGACTATCTGTTC'
p1694
sS'hsa-miR-5582-5p'
p1695
S'TAGGCACACTTAAAGTTATAGC'
p1696
sS'hsa-miR-1915-3p'
p1697
S'CCCCAGGGCGACGCGGCGGG'
p1698
sS'hsa-miR-503-5p'
p1699
S'TAGCAGCGGGAACAGTTCTGCAG'
p1700
sS'hsa-miR-512-5p'
p1701
S'CACTCAGCCTTGAGGGCACTTTC'
p1702
sS'hsa-miR-6862-3p'
p1703
S'CCTCACCCAGCTCTCTGGCCCTCT'
p1704
sS'hsa-miR-7114-3p'
p1705
S'TGACCCACCCCTCTCCACCAG'
p1706
sS'hsa-miR-6836-3p'
p1707
S'ATGCCTCCCCCGGCCCCGCAG'
p1708
sS'hsa-miR-502-3p'
p1709
S'AATGCACCTGGGCAAGGATTCA'
p1710
sS'hsa-miR-345-3p'
p1711
S'GCCCTGAACGAGGGGTCTGGAG'
p1712
sS'hsa-miR-10b-3p'
p1713
S'ACAGATTCGATTCTAGGGGAAT'
p1714
sS'hsa-miR-890'
p1715
S'TACTTGGAAAGGCATCAGTTG'
p1716
sS'hsa-miR-365a-5p'
p1717
S'AGGGACTTTTGGGGGCAGATGTG'
p1718
sS'hsa-miR-3199'
p1719
S'AGGGACTGCCTTAGGAGAAAGTT'
p1720
sS'hsa-miR-584-5p'
p1721
S'TTATGGTTTGCCTGGGACTGAG'
p1722
sS'hsa-miR-4447'
p1723
S'GGTGGGGGCTGTTGTTT'
p1724
sS'hsa-miR-576-5p'
p1725
S'ATTCTAATTTCTCCACGTCTTT'
p1726
sS'hsa-miR-6827-5p'
p1727
S'TGGGAGCCATGAGGGTCTGTGC'
p1728
sS'hsa-miR-7159-5p'
p1729
S'TTCAACAAGGGTGTAGGATGG'
p1730
sS'hsa-miR-4768-3p'
p1731
S'CCAGGAGATCCAGAGAGAAT'
p1732
sS'hsa-miR-105-3p'
p1733
S'ACGGATGTTTGAGCATGTGCTA'
p1734
sS'hsa-miR-6505-3p'
p1735
S'TGACTTCTACCTCTTCCAAAG'
p1736
sS'hsa-miR-8079'
p1737
S'CAGTGATCGTCTCTGCTGGC'
p1738
sS'hsa-miR-8078'
p1739
S'GGTCTAGGCCCGGTGAGAGACTC'
p1740
sS'hsa-miR-4299'
p1741
S'GCTGGTGACATGAGAGGC'
p1742
sS'hsa-miR-4298'
p1743
S'CTGGGACAGGAGGAGGAGGCAG'
p1744
sS'hsa-miR-3194-3p'
p1745
S'AGCTCTGCTGCTCACTGGCAGT'
p1746
sS'hsa-miR-4295'
p1747
S'CAGTGCAATGTTTTCCTT'
p1748
sS'hsa-miR-4294'
p1749
S'GGGAGTCTACAGCAGGG'
p1750
sS'hsa-miR-4297'
p1751
S'TGCCTTCCTGTCTGTG'
p1752
sS'hsa-miR-4296'
p1753
S'ATGTGGGCTCAGGCTCA'
p1754
sS'hsa-miR-4291'
p1755
S'TTCAGCAGGAACAGCT'
p1756
sS'hsa-miR-4290'
p1757
S'TGCCCTCCTTTCTTCCCTC'
p1758
sS'hsa-miR-4293'
p1759
S'CAGCCTGACAGGAACAG'
p1760
sS'hsa-miR-4292'
p1761
S'CCCCTGGGCCGGCCTTGG'
p1762
sS'hsa-miR-5701'
p1763
S'TTATTGTCACGTTCTGATT'
p1764
sS'hsa-miR-7161-5p'
p1765
S'TAAAGACTGTAGAGGCAACTGGT'
p1766
sS'hsa-miR-4782-3p'
p1767
S'TGATTGTCTTCATATCTAGAAC'
p1768
sS'hsa-miR-6780a-3p'
p1769
S'CTCCTCTGTTTTCTTTCCTAG'
p1770
sS'hsa-miR-548bb-5p'
p1771
S'AAAAGTAACTATGGTTTTTGCC'
p1772
sS'hsa-miR-4520-2-3p'
p1773
S'TTTGGACAGAAAACACGCAGGT'
p1774
sS'hsa-miR-6506-3p'
p1775
S'TCGTATCAGAGATTCCAGACAC'
p1776
sS'hsa-miR-3923'
p1777
S'AACTAGTAATGTTGGATTAGGG'
p1778
sS'hsa-miR-6894-3p'
p1779
S'TTGCCTGCCCTCTTCCTCCAG'
p1780
sS'hsa-miR-3925-3p'
p1781
S'ACTCCAGTTTTAGTTCTCTTG'
p1782
sS'hsa-miR-31-3p'
p1783
S'TGCTATGCCAACATATTGCCAT'
p1784
sS'hsa-miR-335-5p'
p1785
S'TCAAGAGCAATAACGAAAAATGT'
p1786
sS'hsa-miR-627-3p'
p1787
S'TCTTTTCTTTGAGACTCACT'
p1788
sS'hsa-miR-520g-5p'
p1789
S'TCTAGAGGAAGCACTTTCTGTTT'
p1790
sS'hsa-miR-4732-5p'
p1791
S'TGTAGAGCAGGGAGCAGGAAGCT'
p1792
sS'hsa-miR-1229-3p'
p1793
S'CTCTCACCACTGCCCTCCCACAG'
p1794
sS'hsa-miR-7111-5p'
p1795
S'TGGGGGAGGAAGGACAGGCCAT'
p1796
sS'hsa-miR-6515-5p'
p1797
S'TTGGAGGGTGTGGAAGACATC'
p1798
sS'hsa-miR-4756-5p'
p1799
S'CAGGGAGGCGCTCACTCTCTGCT'
p1800
sS'hsa-miR-328-3p'
p1801
S'CTGGCCCTCTCTGCCCTTCCGT'
p1802
sS'hsa-miR-7110-3p'
p1803
S'TCTCTCTCCCACTTCCCTGCAG'
p1804
sS'hsa-miR-6820-3p'
p1805
S'TGTGACTTCTCCCCTGCCACAG'
p1806
sS'hsa-miR-3606-5p'
p1807
S'TTAGTGAAGGCTATTTTAATT'
p1808
sS'hsa-miR-1287-3p'
p1809
S'CTCTAGCCACAGATGCAGTGAT'
p1810
sS'hsa-miR-3663-3p'
p1811
S'TGAGCACCACACAGGCCGGGCGC'
p1812
sS'hsa-miR-3614-3p'
p1813
S'TAGCCTTCAGATCTTGGTGTTTT'
p1814
sS'hsa-miR-1231'
p1815
S'GTGTCTGGGCGGACAGCTGC'
p1816
sS'hsa-miR-5197-5p'
p1817
S'CAATGGCACAAACTCATTCTTGA'
p1818
sS'hsa-miR-4255'
p1819
S'CAGTGTTCAGAGATGGA'
p1820
sS'hsa-miR-19b-2-5p'
p1821
S'AGTTTTGCAGGTTTGCATTTCA'
p1822
sS'hsa-let-7f-2-3p'
p1823
S'CTATACAGTCTACTGTCTTTCC'
p1824
sS'hsa-miR-1200'
p1825
S'CTCCTGAGCCATTCTGAGCCTC'
p1826
sS'hsa-miR-93-3p'
p1827
S'ACTGCTGAGCTAGCACTTCCCG'
p1828
sS'hsa-miR-1203'
p1829
S'CCCGGAGCCAGGATGCAGCTC'
p1830
sS'hsa-miR-2909'
p1831
S'GTTAGGGCCAACATCTCTTGG'
p1832
sS'hsa-miR-4645-5p'
p1833
S'ACCAGGCAAGAAATATTGT'
p1834
sS'hsa-miR-6806-3p'
p1835
S'TGAAGCTCTGACATTCCTGCAG'
p1836
sS'hsa-miR-152-3p'
p1837
S'TCAGTGCATGACAGAACTTGG'
p1838
sS'hsa-miR-6797-5p'
p1839
S'AGGAGGGAAGGGGCTGAGAACAGGA'
p1840
sS'hsa-miR-146a-3p'
p1841
S'CCTCTGAAATTCAGTTCTTCAG'
p1842
sS'hsa-miR-6750-5p'
p1843
S'CAGGGAACAGCTGGGTGAGCTGCT'
p1844
sS'hsa-miR-597-3p'
p1845
S'TGGTTCTCTTGTGGCTCAAGCGT'
p1846
sS'hsa-miR-17-3p'
p1847
S'ACTGCAGTGAAGGCACTTGTAG'
p1848
sS'hsa-miR-181b-3p'
p1849
S'CTCACTGAACAATGAATGCAA'
p1850
sS'hsa-miR-363-3p'
p1851
S'AATTGCACGGTATCCATCTGTA'
p1852
sS'hsa-miR-668-3p'
p1853
S'TGTCACTCGGCTCGGCCCACTAC'
p1854
sS'hsa-miR-3944-5p'
p1855
S'TGTGCAGCAGGCCAACCGAGA'
p1856
sS'hsa-miR-6731-5p'
p1857
S'TGGGAGAGCAGGGTATTGTGGA'
p1858
sS'hsa-miR-323a-5p'
p1859
S'AGGTGGTCCGTGGCGCGTTCGC'
p1860
sS'hsa-miR-6798-3p'
p1861
S'CTACCCCCCATCCCCCTGTAG'
p1862
sS'hsa-miR-520d-5p'
p1863
S'CTACAAAGGGAAGCCCTTTC'
p1864
sS'hsa-miR-6765-3p'
p1865
S'TCACCTGGCTGGCCCGCCCAG'
p1866
sS'hsa-miR-670-5p'
p1867
S'GTCCCTGAGTGTATGTGGTG'
p1868
sS'hsa-miR-4762-5p'
p1869
S'CCAAATCTTGATCAGAAGCCT'
p1870
sS'hsa-miR-4759'
p1871
S'TAGGACTAGATGTTGGAATTA'
p1872
sS'hsa-miR-4676-5p'
p1873
S'GAGCCAGTGGTGAGACAGTGA'
p1874
sS'hsa-miR-22-5p'
p1875
S'AGTTCTTCAGTGGCAAGCTTTA'
p1876
sS'hsa-miR-216a-5p'
p1877
S'TAATCTCAGCTGGCAACTGTGA'
p1878
sS'hsa-miR-4752'
p1879
S'TTGTGGATCTCAAGGATGTGCT'
p1880
sS'hsa-miR-4754'
p1881
S'ATGCGGACCTGGGTTAGCGGAGT'
p1882
sS'hsa-miR-6130'
p1883
S'TGAGGGAGTGGATTGTATG'
p1884
sS'hsa-miR-4701-3p'
p1885
S'ATGGGTGATGGGTGTGGTGT'
p1886
sS'hsa-miR-2116-5p'
p1887
S'GGTTCTTAGCATAGGAGGTCT'
p1888
sS'hsa-miR-219a-1-3p'
p1889
S'AGAGTTGAGTCTGGACGTCCCG'
p1890
sS'hsa-miR-4699-5p'
p1891
S'AGAAGATTGCAGAGTAAGTTCC'
p1892
sS'hsa-miR-4795-3p'
p1893
S'ATATTATTAGCCACTTCTGGAT'
p1894
sS'hsa-miR-30b-5p'
p1895
S'TGTAAACATCCTACACTCAGCT'
p1896
sS'hsa-miR-1295a'
p1897
S'TTAGGCCGCAGATCTGGGTGA'
p1898
sS'hsa-miR-7108-3p'
p1899
S'ACCCGCCCGTCTCCCCACAG'
p1900
sS'hsa-miR-21-5p'
p1901
S'TAGCTTATCAGACTGATGTTGA'
p1902
sS'hsa-miR-199a-5p'
p1903
S'CCCAGTGTTCAGACTACCTGTTC'
p1904
sS'hsa-miR-449b-5p'
p1905
S'AGGCAGTGTATTGTTAGCTGGC'
p1906
sS'hsa-miR-144-5p'
p1907
S'GGATATCATCATATACTGTAAG'
p1908
sS'hsa-miR-122-3p'
p1909
S'AACGCCATTATCACACTAAATA'
p1910
sS'hsa-miR-34a-5p'
p1911
S'TGGCAGTGTCTTAGCTGGTTGT'
p1912
sS'hsa-miR-145-5p'
p1913
S'GTCCAGTTTTCCCAGGAATCCCT'
p1914
sS'hsa-miR-449c-5p'
p1915
S'TAGGCAGTGTATTGCTAGCGGCTGT'
p1916
sS'hsa-miR-876-3p'
p1917
S'TGGTGGTTTACAAAGTAATTCA'
p1918
sS'hsa-miR-1295b-3p'
p1919
S'AATAGGCCACGGATCTGGGCAA'
p1920
sS'hsa-miR-6824-5p'
p1921
S'GTAGGGGAGGTTGGGCCAGGGA'
p1922
sS'hsa-miR-190b'
p1923
S'TGATATGTTTGATATTGGGTT'
p1924
sS'hsa-miR-3186-3p'
p1925
S'TCACGCGGAGAGATGGCTTTG'
p1926
sS'hsa-miR-106b-3p'
p1927
S'CCGCACTGTGGGTACTTGCTGC'
p1928
sS'hsa-miR-7152-5p'
p1929
S'TTTCCTGTCCTCCAACCAGACC'
p1930
sS'hsa-miR-425-5p'
p1931
S'AATGACACGATCACTCCCGTTGA'
p1932
sS'hsa-miR-7158-5p'
p1933
S'GGCTCAATCTCTGGTCCTGCAGCC'
p1934
sS'hsa-miR-5692c'
p1935
S'AATAATATCACAGTAGGTGTAC'
p1936
sS'hsa-miR-3613-3p'
p1937
S'ACAAAAAAAAAAGCCCAACCCTTC'
p1938
sS'hsa-miR-3653-5p'
p1939
S'CCTCCTGATGATTCTTCTTC'
p1940
sS'hsa-miR-3928-5p'
p1941
S'TGAAGCTCTAAGGTTCCGCCTGC'
p1942
sS'hsa-miR-6842-3p'
p1943
S'TTGGCTGGTCTCTGCTCCGCAG'
p1944
sS'hsa-miR-641'
p1945
S'AAAGACATAGGATAGAGTCACCTC'
p1946
sS'hsa-miR-640'
p1947
S'ATGATCCAGGAACCTGCCTCT'
p1948
sS'hsa-miR-643'
p1949
S'ACTTGTATGCTAGCTCAGGTAG'
p1950
sS'hsa-miR-645'
p1951
S'TCTAGGCTGGTACTGCTGA'
p1952
sS'hsa-miR-647'
p1953
S'GTGGCTGCACTCACTTCCTTC'
p1954
sS'hsa-miR-646'
p1955
S'AAGCAGCTGCCTCTGAGGC'
p1956
sS'hsa-miR-649'
p1957
S'AAACCTGTGTTGTTCAAGAGTC'
p1958
sS'hsa-miR-2114-5p'
p1959
S'TAGTCCCTTCCTTGAAGCGGTC'
p1960
sS'hsa-miR-29a-5p'
p1961
S'ACTGATTTCTTTTGGTGTTCAG'
p1962
sS'hsa-miR-5001-3p'
p1963
S'TTCTGCCTCTGTCCAGGTCCTT'
p1964
sS'hsa-miR-3620-5p'
p1965
S'GTGGGCTGGGCTGGGCTGGGCC'
p1966
sS'hsa-miR-409-3p'
p1967
S'GAATGTTGCTCGGTGAACCCCT'
p1968
sS'hsa-miR-136-5p'
p1969
S'ACTCCATTTGTTTTGATGATGGA'
p1970
sS'hsa-miR-337-5p'
p1971
S'GAACGGCTTCATACAGGAGTT'
p1972
sS'hsa-miR-6855-5p'
p1973
S'TTGGGGTTTGGGGTGCAGACATTGC'
p1974
sS'hsa-miR-125a-5p'
p1975
S'TCCCTGAGACCCTTTAACCTGTGA'
p1976
sS'hsa-miR-4436b-5p'
p1977
S'GTCCACTTCTGCCTGCCCTGCC'
p1978
sS'hsa-miR-3127-5p'
p1979
S'ATCAGGGCTTGTGGAATGGGAAG'
p1980
sS'hsa-miR-4423-5p'
p1981
S'AGTTGCCTTTTTGTTCCCATGC'
p1982
sS'hsa-miR-221-5p'
p1983
S'ACCTGGCATACAATGTAGATTT'
p1984
sS'hsa-miR-5002-3p'
p1985
S'TGACTGCCTCACTGACCACTT'
p1986
sS'hsa-miR-519c-3p'
p1987
S'AAAGTGCATCTTTTTAGAGGAT'
p1988
sS'hsa-miR-98-5p'
p1989
S'TGAGGTAGTAAGTTGTATTGTT'
p1990
sS'hsa-miR-3197'
p1991
S'GGAGGCGCAGGCTCGGAAAGGCG'
p1992
sS'hsa-miR-3196'
p1993
S'CGGGGCGGCAGGGGCCTC'
p1994
sS'hsa-miR-3195'
p1995
S'CGCGCCGGGCCCGGGTT'
p1996
sS'hsa-miR-3193'
p1997
S'TCCTGCGTAGGATCTGAGGAGT'
p1998
sS'hsa-miR-4761-5p'
p1999
S'ACAAGGTGTGCATGCCTGACC'
p2000
sS'hsa-miR-644a'
p2001
S'AGTGTGGCTTTCTTAGAGC'
p2002
sS'hsa-miR-548az-3p'
p2003
S'AAAAACTGCAATCACTTTTGC'
p2004
sS'hsa-miR-4764-3p'
p2005
S'TTAACTCCTTTCACACCCATGG'
p2006
sS'hsa-miR-6809-3p'
p2007
S'CTTCTCTTCTCTCCTTCCCAG'
p2008
sS'hsa-miR-154-5p'
p2009
S'TAGGTTATCCGTGTTGCCTTCG'
p2010
sS'hsa-miR-3198'
p2011
S'GTGGAGTCCTGGGGAATGGAGA'
p2012
sS'hsa-miR-6753-3p'
p2013
S'TGGTCTGTCTCTGCCCTGGCAC'
p2014
sS'hsa-miR-4670-3p'
p2015
S'TGAAGTTACATCATGGTCGCTT'
p2016
sS'hsa-miR-4781-5p'
p2017
S'TAGCGGGGATTCCAATATTGG'
p2018
sS'hsa-miR-523-5p'
p2019
S'CTCTAGAGGGAAGCGCTTTCTG'
p2020
sS'hsa-miR-6512-3p'
p2021
S'TTCCAGCCCTTCTAATGGTAGG'
p2022
sS'hsa-miR-132-5p'
p2023
S'ACCGTGGCTTTCGATTGTTACT'
p2024
sS'hsa-miR-203a-5p'
p2025
S'AGTGGTTCTTAACAGTTCAACAGTT'
p2026
sS'hsa-miR-4731-3p'
p2027
S'CACACAAGTGGCCCCCAACACT'
p2028
sS'hsa-miR-520a-3p'
p2029
S'AAAGTGCTTCCCTTTGGACTGT'
p2030
sS'hsa-miR-675-3p'
p2031
S'CTGTATGCCCTCACCGCTCA'
p2032
sS'hsa-miR-376a-5p'
p2033
S'GTAGATTCTCCTTCTATGAGTA'
p2034
sS'hsa-miR-7114-5p'
p2035
S'TCTGTGGAGTGGGGTGCCTGT'
p2036
sS'hsa-miR-6132'
p2037
S'AGCAGGGCTGGGGATTGCA'
p2038
sS'hsa-miR-196b-3p'
p2039
S'TCGACAGCACGACACTGCCTTC'
p2040
sS'hsa-miR-3190-3p'
p2041
S'TGTGGAAGGTAGACGGCCAGAGA'
p2042
sS'hsa-miR-6131'
p2043
S'GGCTGGTCAGATGGGAGTG'
p2044
sS'hsa-miR-6850-3p'
p2045
S'CCCGGCCGGAACGCCGCACT'
p2046
sS'hsa-miR-219b-3p'
p2047
S'AGAATTGCGTTTGGACAATCAGT'
p2048
sS'hsa-miR-6134'
p2049
S'TGAGGTGGTAGGATGTAGA'
p2050
sS'hsa-miR-3619-5p'
p2051
S'TCAGCAGGCAGGCTGGTGCAGC'
p2052
sS'hsa-miR-6741-3p'
p2053
S'TCGGCTCTCTCCCTCACCCTAG'
p2054
sS'hsa-miR-1587'
p2055
S'TTGGGCTGGGCTGGGTTGGG'
p2056
sS'hsa-miR-5590-5p'
p2057
S'TTGCCATACATAGACTTTATT'
p2058
sS'hsa-miR-429'
p2059
S'TAATACTGTCTGGTAAAACCGT'
p2060
sS'hsa-miR-676-3p'
p2061
S'CTGTCCTAAGGTTGTTGAGTT'
p2062
sS'hsa-miR-4742-5p'
p2063
S'TCAGGCAAAGGGATATTTACAGA'
p2064
sS'hsa-miR-421'
p2065
S'ATCAACAGACATTAATTGGGCGC'
p2066
sS'hsa-miR-187-3p'
p2067
S'TCGTGTCTTGTGTTGCAGCCGG'
p2068
sS'hsa-miR-196a-3p'
p2069
S'CGGCAACAAGAAACTGCCTGAG'
p2070
sS'hsa-miR-323b-5p'
p2071
S'AGGTTGTCCGTGGTGAGTTCGCA'
p2072
sS'hsa-miR-4789-3p'
p2073
S'CACACATAGCAGGTGTATATA'
p2074
sS'hsa-miR-3942-3p'
p2075
S'TTTCAGATAACAGTATTACAT'
p2076
sS'hsa-miR-6769a-3p'
p2077
S'GAGCCCCTCTCTGCTCTCCAG'
p2078
sS'hsa-miR-23b-3p'
p2079
S'ATCACATTGCCAGGGATTACC'
p2080
sS'hsa-miR-5739'
p2081
S'GCGGAGAGAGAATGGGGAGC'
p2082
sS'hsa-miR-500a-5p'
p2083
S'TAATCCTTGCTACCTGGGTGAGA'
p2084
sS'hsa-miR-7106-3p'
p2085
S'AGCTCCCTGAATCCCTGTCCCAG'
p2086
sS'hsa-miR-506-3p'
p2087
S'TAAGGCACCCTTCTGAGTAGA'
p2088
sS'hsa-miR-5009-3p'
p2089
S'TCCTAAATCTGAAAGTCCAAAA'
p2090
sS'hsa-miR-1537-3p'
p2091
S'AAAACCGTCTAGTTACAGTTGT'
p2092
sS'hsa-miR-4783-5p'
p2093
S'GGCGCGCCCAGCTCCCGGGCT'
p2094
sS'hsa-miR-203b-5p'
p2095
S'TAGTGGTCCTAAACATTTCACA'
p2096
sS'hsa-miR-425-3p'
p2097
S'ATCGGGAATGTCGTGTCCGCCC'
p2098
sS'hsa-miR-3691-3p'
p2099
S'ACCAAGTCTGCGTCATCCTCTC'
p2100
sS'hsa-miR-8085'
p2101
S'TGGGAGAGAGGACTGTGAGGC'
p2102
sS'hsa-miR-3973'
p2103
S'ACAAAGTACAGCATTAGCCTTAG'
p2104
sS'hsa-miR-3972'
p2105
S'CTGCCAGCCCCGTTCCAGGGCA'
p2106
sS'hsa-miR-3975'
p2107
S'TGAGGCTAATGCACTACTTCAC'
p2108
sS'hsa-miR-3974'
p2109
S'AAAGGTCATTGTAAGGTTAATGC'
p2110
sS'hsa-miR-3977'
p2111
S'GTGCTTCATCGTAATTAACCTTA'
p2112
sS'hsa-miR-3976'
p2113
S'TATAGAGAGCAGGAAGATTAATGT'
p2114
sS'hsa-miR-3978'
p2115
S'GTGGAAAGCATGCATCCAGGGTGT'
p2116
sS'hsa-miR-383-3p'
p2117
S'ACAGCACTGCCTGGTCAGA'
p2118
sS'hsa-miR-8088'
p2119
S'CCTCGGTACTGGAAAGGGGTA'
p2120
sS'hsa-miR-8089'
p2121
S'CCTGGGGACAGGGGATTGGGGCAG'
p2122
sS'hsa-miR-5008-5p'
p2123
S'TGAGGCCCTTGGGGCACAGTGG'
p2124
sS'hsa-miR-3940-3p'
p2125
S'CAGCCCGGATCCCAGCCCACTT'
p2126
sS'hsa-miR-218-1-3p'
p2127
S'ATGGTTCCGTCAAGCACCATGG'
p2128
sS'hsa-miR-6504-5p'
p2129
S'TCTGGCTGTGCTGTAATGCAG'
p2130
sS'hsa-miR-6794-5p'
p2131
S'CAGGGGGACTGGGGGTGAGC'
p2132
sS'hsa-miR-5188'
p2133
S'AATCGGACCCATTTAAACCGGAG'
p2134
sS'hsa-miR-4664-3p'
p2135
S'CTTCCGGTCTGTGAGCCCCGTC'
p2136
sS'hsa-miR-376a-2-5p'
p2137
S'GGTAGATTTTCCTTCTATGGT'
p2138
sS'hsa-miR-146b-5p'
p2139
S'TGAGAACTGAATTCCATAGGCT'
p2140
sS'hsa-miR-4680-3p'
p2141
S'TCTGAATTGTAAGAGTTGTTA'
p2142
sS'hsa-miR-933'
p2143
S'TGTGCGCAGGGAGACCTCTCCC'
p2144
sS'hsa-miR-3667-3p'
p2145
S'ACCTTCCTCTCCATGGGTCTTT'
p2146
sS'hsa-miR-935'
p2147
S'CCAGTTACCGCTTCCGCTACCGC'
p2148
sS'hsa-miR-934'
p2149
S'TGTCTACTACTGGAGACACTGG'
p2150
sS'hsa-miR-7973'
p2151
S'TGTGACCCTAGAATAATTAC'
p2152
sS'hsa-miR-4738-5p'
p2153
S'ACCAGCGCGTTTTCAGTTTCAT'
p2154
sS'hsa-miR-6877-5p'
p2155
S'AGGGCCGAAGGGTGGAAGCTGC'
p2156
sS'hsa-miR-6759-5p'
p2157
S'TTGTGGGTGGGCAGAAGTCTGT'
p2158
sS'hsa-miR-6886-5p'
p2159
S'CCCGCAGGTGAGATGAGGGCT'
p2160
sS'hsa-miR-3664-3p'
p2161
S'TCTCAGGAGTAAAGACAGAGTT'
p2162
sS'hsa-let-7b-5p'
p2163
S'TGAGGTAGTAGGTTGTGTGGTT'
p2164
sS'hsa-miR-1-3p'
p2165
S'TGGAATGTAAAGAAGTATGTAT'
p2166
sS'hsa-miR-301b-5p'
p2167
S'GCTCTGACGAGGTTGCACTACT'
p2168
sS'hsa-miR-4524a-5p'
p2169
S'ATAGCAGCATGAACCTGTCTCA'
p2170
sS'hsa-miR-6819-3p'
p2171
S'AAGCCTCTGTCCCCACCCCAG'
p2172
sS'hsa-miR-192-5p'
p2173
S'CTGACCTATGAATTGACAGCC'
p2174
sS'hsa-miR-183-3p'
p2175
S'GTGAATTACCGAAGGGCCATAA'
p2176
sS'hsa-miR-6846-3p'
p2177
S'TGACCCCTTCTGTCTCCCTAG'
p2178
sS'hsa-miR-7162-3p'
p2179
S'TCTGAGGTGGAACAGCAGC'
p2180
sS'hsa-miR-126-5p'
p2181
S'CATTATTACTTTTGGTACGCG'
p2182
sS'hsa-miR-548a-5p'
p2183
S'AAAAGTAATTGCGAGTTTTACC'
p2184
sS'hsa-miR-891a-3p'
p2185
S'AGTGGCACATGTTTGTTGTGAG'
p2186
sS'hsa-miR-6805-5p'
p2187
S'TAGGGGGCGGCTTGTGGAGTGT'
p2188
sS'hsa-miR-616-3p'
p2189
S'AGTCATTGGAGGGTTTGAGCAG'
p2190
sS'hsa-miR-1914-5p'
p2191
S'CCCTGTGCCCGGCCCACTTCTG'
p2192
sS'hsa-miR-191-5p'
p2193
S'CAACGGAATCCCAAAAGCAGCTG'
p2194
sS'hsa-miR-590-5p'
p2195
S'GAGCTTATTCATAAAAGTGCAG'
p2196
sS'hsa-miR-874-3p'
p2197
S'CTGCCCTGGCCCGAGGGACCGA'
p2198
sS'hsa-miR-1825'
p2199
S'TCCAGTGCCCTCCTCTCC'
p2200
sS'hsa-miR-1827'
p2201
S'TGAGGCAGTAGATTGAAT'
p2202
sS'hsa-miR-889-5p'
p2203
S'AATGGCTGTCCGTAGTATGGTC'
p2204
sS'hsa-miR-6891-3p'
p2205
S'CCCTCATCTTCCCCTCCTTTC'
p2206
sS'hsa-miR-548t-5p'
p2207
S'CAAAAGTGATCGTGGTTTTTG'
p2208
sS'hsa-miR-4433a-3p'
p2209
S'ACAGGAGTGGGGGTGGGACAT'
p2210
sS'hsa-miR-4659a-3p'
p2211
S'TTTCTTCTTAGACATGGCAACG'
p2212
sS'hsa-miR-509-5p'
p2213
S'TACTGCAGACAGTGGCAATCA'
p2214
sS'hsa-miR-200b-3p'
p2215
S'TAATACTGCCTGGTAATGATGA'
p2216
sS'hsa-miR-526b-5p'
p2217
S'CTCTTGAGGGAAGCACTTTCTGT'
p2218
sS'hsa-miR-5579-5p'
p2219
S'TATGGTACTCCTTAAGCTAAC'
p2220
sS'hsa-miR-32-3p'
p2221
S'CAATTTAGTGTGTGTGATATTT'
p2222
sS'hsa-miR-3622b-3p'
p2223
S'TCACCTGAGCTCCCGTGCCTG'
p2224
sS'hsa-miR-4748'
p2225
S'GAGGTTTGGGGAGGATTTGCT'
p2226
sS'hsa-miR-494-5p'
p2227
S'AGGTTGTCCGTGTTGTCTTCTCT'
p2228
sS'hsa-miR-4741'
p2229
S'CGGGCTGTCCGGAGGGGTCGGCT'
p2230
sS'hsa-miR-6732-5p'
p2231
S'TAGGGGGTGGCAGGCTGGCC'
p2232
sS'hsa-miR-4744'
p2233
S'TCTAAAGACTAGACTTCGCTATG'
p2234
sS'hsa-miR-5693'
p2235
S'GCAGTGGCTCTGAAATGAACTC'
p2236
sS'hsa-miR-5690'
p2237
S'TCAGCTACTACCTCTATTAGG'
p2238
sS'hsa-miR-5691'
p2239
S'TTGCTCTGAGCTCCGAGAAAGC'
p2240
sS'hsa-miR-5696'
p2241
S'CTCATTTAAGTAGTCTGATGCC'
p2242
sS'hsa-miR-330-5p'
p2243
S'TCTCTGGGCCTGTGTCTTAGGC'
p2244
sS'hsa-miR-5694'
p2245
S'CAGATCATGGGACTGTCTCAG'
p2246
sS'hsa-miR-5695'
p2247
S'ACTCCAAGAAGAATCTAGACAG'
p2248
sS'hsa-miR-5698'
p2249
S'TGGGGGAGTGCAGTGATTGTGG'
p2250
sS'hsa-miR-1233-5p'
p2251
S'AGTGGGAGGCCAGGGCACGGCA'
p2252
sS'hsa-miR-6734-5p'
p2253
S'TTGAGGGGAGAATGAGGTGGAGA'
p2254
sS'hsa-miR-4772-5p'
p2255
S'TGATCAGGCAAAATTGCAGACT'
p2256
sS'hsa-miR-6782-3p'
p2257
S'CACCTTTGTGTCCCCATCCTGCA'
p2258
sS'hsa-miR-744-3p'
p2259
S'CTGTTGCCACTAACCTCAACCT'
p2260
sS'hsa-miR-1913'
p2261
S'TCTGCCCCCTCCGCTGCTGCCA'
p2262
sS'hsa-miR-1912'
p2263
S'TACCCAGAGCATGCAGTGTGAA'
p2264
sS'hsa-miR-26a-1-3p'
p2265
S'CCTATTCTTGGTTACTTGCACG'
p2266
sS'hsa-miR-518c-5p'
p2267
S'TCTCTGGAGGGAAGCACTTTCTG'
p2268
sS'hsa-miR-548ah-5p'
p2269
S'AAAAGTGATTGCAGTGTTTG'
p2270
sS'hsa-miR-1185-1-3p'
p2271
S'ATATACAGGGGGAGACTCTTAT'
p2272
sS'hsa-miR-103a-2-5p'
p2273
S'AGCTTCTTTACAGTGCTGCCTTG'
p2274
sS'hsa-miR-134-3p'
p2275
S'CCTGTGGGCCACCTAGTCACCAA'
p2276
sS'hsa-miR-2110'
p2277
S'TTGGGGAAACGGCCGCTGAGTG'
p2278
sS'hsa-miR-548c-5p'
p2279
S'AAAAGTAATTGCGGTTTTTGCC'
p2280
sS'hsa-miR-2113'
p2281
S'ATTTGTGCTTGGCTCTGTCAC'
p2282
sS'hsa-miR-8086'
p2283
S'TGCTAGTCTGGACTGATATGGT'
p2284
sS'hsa-miR-2117'
p2285
S'TGTTCTCTTTGCCAAGGACAG'
p2286
sS'hsa-miR-6885-5p'
p2287
S'AGGGGGGCACTGCGCAAGCAAAGCC'
p2288
sS'hsa-miR-8087'
p2289
S'GAAGACTTCTTGGATTACAGGGG'
p2290
sS'hsa-miR-6722-5p'
p2291
S'AGGCGCACCCGACCACATGC'
p2292
sS'hsa-miR-6754-3p'
p2293
S'TCTTCACCTGCCTCTGCCTGCA'
p2294
sS'hsa-miR-3607-3p'
p2295
S'ACTGTAAACGCTTTCTGATG'
p2296
sS'hsa-miR-8081'
p2297
S'CTTGAGTCGTGCCTTTCTGAATG'
p2298
sS'hsa-miR-4724-3p'
p2299
S'GTACCTTCTGGTTCAGCTAGT'
p2300
sS'hsa-miR-100-3p'
p2301
S'CAAGCTTGTATCTATAGGTATG'
p2302
sS'hsa-miR-4452'
p2303
S'TTGAATTCTTGGCCTTAAGTGAT'
p2304
sS'hsa-miR-8083'
p2305
S'CAGGACTTGACGGCTGCAACT'
p2306
sS'hsa-miR-653-3p'
p2307
S'TTCACTGGAGTTTGTTTCAATA'
p2308
sS'hsa-miR-5586-3p'
p2309
S'CAGAGTGACAAGCTGGTTAAAG'
p2310
sS'hsa-miR-103a-3p'
p2311
S'AGCAGCATTGTACAGGGCTATGA'
p2312
sS'hsa-miR-4750-3p'
p2313
S'CCTGACCCACCCCCTCCCGCAG'
p2314
sS'hsa-miR-6757-3p'
p2315
S'AACACTGGCCTTGCTATCCCCA'
p2316
sS'hsa-miR-5088-3p'
p2317
S'TCCCTTCTTCCTGGGCCCTCA'
p2318
sS'hsa-miR-6789-5p'
p2319
S'GTAGGGGCGTCCCGGGCGCGCGGG'
p2320
sS'hsa-miR-483-3p'
p2321
S'TCACTCCTCTCCTCCCGTCTT'
p2322
sS'hsa-miR-6773-3p'
p2323
S'ACTGTCACTTCTCTGCCCATAG'
p2324
sS'hsa-miR-6751-5p'
p2325
S'TTGGGGGTGAGGTTGGTGTCTGG'
p2326
sS'hsa-miR-378d'
p2327
S'ACTGGACTTGGAGTCAGAAA'
p2328
sS'hsa-miR-361-3p'
p2329
S'TCCCCCAGGTGTGATTCTGATTT'
p2330
sS'hsa-miR-6807-3p'
p2331
S'CACTGCATTCCTGCTTGGCCCAG'
p2332
sS'hsa-miR-657'
p2333
S'GGCAGGTTCTCACCCTCTCTAGG'
p2334
sS'hsa-miR-548am-3p'
p2335
S'CAAAAACTGCAGTTACTTTTGT'
p2336
sS'hsa-miR-650'
p2337
S'AGGAGGCAGCGCTCTCAGGAC'
p2338
sS'hsa-miR-6895-3p'
p2339
S'TGTCTCTCGCCCTTGGCCTTAG'
p2340
sS'hsa-miR-129-1-3p'
p2341
S'AAGCCCTTACCCCAAAAAGTAT'
p2342
sS'hsa-miR-658'
p2343
S'GGCGGAGGGAAGTAGGTCCGTTGGT'
p2344
sS'hsa-miR-1250-3p'
p2345
S'ACATTTTCCAGCCCATTCA'
p2346
sS'hsa-miR-92a-1-5p'
p2347
S'AGGTTGGGATCGGTTGCAATGCT'
p2348
sS'hsa-miR-582-5p'
p2349
S'TTACAGTTGTTCAACCAGTTACT'
p2350
sS'hsa-miR-139-5p'
p2351
S'TCTACAGTGCACGTGTCTCCAGT'
p2352
sS'hsa-miR-125b-2-3p'
p2353
S'TCACAAGTCAGGCTCTTGGGAC'
p2354
sS'hsa-miR-6800-3p'
p2355
S'CACCTCTCCTGGCATCGCCCC'
p2356
sS'hsa-miR-4769-5p'
p2357
S'GGTGGGATGGAGAGAAGGTATGAG'
p2358
sS'hsa-miR-3960'
p2359
S'GGCGGCGGCGGAGGCGGGGG'
p2360
sS'hsa-miR-6835-3p'
p2361
S'AAAAGCACTTTTCTGTCTCCCAG'
p2362
sS'hsa-miR-455-3p'
p2363
S'GCAGTCCATGGGCATATACAC'
p2364
sS'hsa-miR-6720-3p'
p2365
S'CGCGCCTGCAGGAACTGGTAGA'
p2366
sS'hsa-miR-4740-3p'
p2367
S'GCCCGAGAGGATCCGTCCCTGC'
p2368
sS'hsa-miR-15b-5p'
p2369
S'TAGCAGCACATCATGGTTTACA'
p2370
sS'hsa-miR-744-5p'
p2371
S'TGCGGGGCTAGGGCTAACAGCA'
p2372
sS'hsa-miR-6511a-5p'
p2373
S'CAGGCAGAAGTGGGGCTGACAGG'
p2374
sS'hsa-miR-6803-3p'
p2375
S'TCCCTCGCCTTCTCACCCTCAG'
p2376
sS'hsa-miR-4418'
p2377
S'CACTGCAGGACTCAGCAG'
p2378
sS'hsa-miR-4417'
p2379
S'GGTGGGCTTCCCGGAGGG'
p2380
sS'hsa-miR-324-3p'
p2381
S'ACTGCCCCAGGTGCTGCTGG'
p2382
sS'hsa-miR-155-5p'
p2383
S'TTAATGCTAATCGTGATAGGGGT'
p2384
sS'hsa-miR-4419b'
p2385
S'GAGGCTGAAGGAAGATGG'
p2386
sS'hsa-miR-4419a'
p2387
S'TGAGGGAGGAGACTGCA'
p2388
sS'hsa-miR-3160-5p'
p2389
S'GGCTTTCTAGTCTCAGCTCTCC'
p2390
sS'hsa-miR-326'
p2391
S'CCTCTGGGCCCTTCCTCCAG'
p2392
sS'hsa-miR-325'
p2393
S'CCTAGTAGGTGTCCAGTAAGTGT'
p2394
sS'hsa-miR-518e-5p'
p2395
S'CTCTAGAGGGAAGCGCTTTCTG'
p2396
sS'hsa-miR-6878-3p'
p2397
S'CTGGCCTCTTCTTTCTCCTAG'
p2398
sS'hsa-miR-6125'
p2399
S'GCGGAAGGCGGAGCGGCGGA'
p2400
sS'hsa-miR-4668-5p'
p2401
S'AGGGAAAAAAAAAAGGATTTGTC'
p2402
sS'hsa-miR-6127'
p2403
S'TGAGGGAGTGGGTGGGAGG'
p2404
sS'hsa-miR-938'
p2405
S'TGCCCTTAAAGGTGAACCCAGT'
p2406
sS'hsa-miR-663a'
p2407
S'AGGCGGGGCGCCGCGGGACCGC'
p2408
sS'hsa-miR-6760-5p'
p2409
S'CAGGGAGAAGGTGGAAGTGCAGA'
p2410
sS'hsa-miR-3617-3p'
p2411
S'CATCAGCACCCTATGTCCTTTCT'
p2412
sS'hsa-miR-663b'
p2413
S'GGTGGCCCGGCCGTGCCTGAGG'
p2414
sS'hsa-miR-6129'
p2415
S'TGAGGGAGTTGGGTGTATA'
p2416
sS'hsa-miR-6128'
p2417
S'ACTGGAATTGGAGTCAAAA'
p2418
sS'hsa-miR-1226-5p'
p2419
S'GTGAGGGCATGCAGGCCTGGATGGGG'
p2420
sS'hsa-miR-7977'
p2421
S'TTCCCAGCCAACGCACCA'
p2422
sS'hsa-miR-3180-5p'
p2423
S'CTTCCAGACGCTCCGCCCCACGTCG'
p2424
sS'hsa-miR-423-3p'
p2425
S'AGCTCGGTCTGAGGCCCCTCAGT'
p2426
sS'hsa-miR-371a-5p'
p2427
S'ACTCAAACTGTGGGGGCACT'
p2428
sS'hsa-miR-4428'
p2429
S'CAAGGAGACGGGAACATGGAGC'
p2430
sS'hsa-miR-5582-3p'
p2431
S'TAAAACTTTAAGTGTGCCTAGG'
p2432
sS'hsa-miR-4684-3p'
p2433
S'TGTTGCAAGTCGGTGGAGACGT'
p2434
sS'hsa-miR-512-3p'
p2435
S'AAGTGCTGTCATAGCTGAGGTC'
p2436
sS'hsa-miR-6862-5p'
p2437
S'CGGGCATGCTGGGAGAGACTTT'
p2438
sS'hsa-miR-502-5p'
p2439
S'ATCCTTGCTATCTGGGTGCTA'
p2440
sS'hsa-miR-542-3p'
p2441
S'TGTGACAGATTGATAACTGAAA'
p2442
sS'hsa-miR-99b-3p'
p2443
S'CAAGCTCGTGTCTGTGGGTCCG'
p2444
sS'hsa-miR-936'
p2445
S'ACAGTAGAGGGAGGAATCGCAG'
p2446
sS'hsa-miR-4687-5p'
p2447
S'CAGCCCTCCTCCCGCACCCAAA'
p2448
sS'hsa-miR-5007-5p'
p2449
S'TAGAGTCTGGCTGATATGGTTT'
p2450
sS'hsa-miR-6793-3p'
p2451
S'TCCCCAACCCCTGCCCGCAG'
p2452
sS'hsa-miR-4685-5p'
p2453
S'CCCAGGGCTTGGAGTGGGGCAAGGTT'
p2454
sS'hsa-miR-3192-3p'
p2455
S'CTCTGATCGCCCTCTCAGCTC'
p2456
sS'hsa-miR-659-3p'
p2457
S'CTTGGTTCAGGGAGGGTCCCCA'
p2458
sS'hsa-miR-6505-5p'
p2459
S'TTGGAATAGGGGATATCTCAGC'
p2460
sS'hsa-miR-3927-3p'
p2461
S'CAGGTAGATATTTGATAGGCAT'
p2462
sS'hsa-miR-6738-3p'
p2463
S'CTTCTGCCTGCATTCTACTCCCAG'
p2464
sS'hsa-miR-3194-5p'
p2465
S'GGCCAGCCACCAGGAGGGCTG'
p2466
sS'hsa-miR-3162-5p'
p2467
S'TTAGGGAGTAGAAGGGTGGGGAG'
p2468
sS'hsa-miR-3156-5p'
p2469
S'AAAGATCTGGAAGTGGGAGACA'
p2470
sS'hsa-miR-579-3p'
p2471
S'TTCATTTGGTATAAACCGCGATT'
p2472
sS'hsa-miR-937-3p'
p2473
S'ATCCGCGCTCTGACTCTCTGCC'
p2474
sS'hsa-miR-3157-5p'
p2475
S'TTCAGCCAGGCTAGTGCAGTCT'
p2476
sS'hsa-miR-450a-1-3p'
p2477
S'ATTGGGAACATTTTGCATGTAT'
p2478
sS'hsa-miR-873-5p'
p2479
S'GCAGGAACTTGTGAGTCTCCT'
p2480
sS'hsa-let-7a-5p'
p2481
S'TGAGGTAGTAGGTTGTATAGTT'
p2482
sS'hsa-miR-4735-3p'
p2483
S'AAAGGTGCTCAAATTAGACAT'
p2484
sS'hsa-miR-6831-3p'
p2485
S'TGACTAACTCCCACTCTACAG'
p2486
sS'hsa-miR-450a-2-3p'
p2487
S'ATTGGGGACATTTTGCATTCAT'
p2488
sS'hsa-miR-920'
p2489
S'GGGGAGCTGTGGAAGCAGTA'
p2490
sS'hsa-miR-921'
p2491
S'CTAGTGAGGGACAGAACCAGGATTC'
p2492
sS'hsa-miR-922'
p2493
S'GCAGCAGAGAATAGGACTACGTC'
p2494
sS'hsa-miR-924'
p2495
S'AGAGTCTTGTGATGTCTTGC'
p2496
sS'hsa-miR-584-3p'
p2497
S'TCAGTTCCAGGCCAACCAGGCT'
p2498
sS'hsa-miR-6783-5p'
p2499
S'TAGGGGAAAAGTCCTGATCCGG'
p2500
sS'hsa-miR-627-5p'
p2501
S'GTGAGTCTCTAAGAAAAGAGGA'
p2502
sS'hsa-miR-6762-5p'
p2503
S'CGGGGCCATGGAGCAGCCTGTGT'
p2504
sS'hsa-miR-125b-1-3p'
p2505
S'ACGGGTTAGGCTCTTGGGAGCT'
p2506
sS'hsa-miR-6875-5p'
p2507
S'TGAGGGACCCAGGACAGGAGA'
p2508
sS'hsa-miR-18b-3p'
p2509
S'TGCCCTAAATGCCCCTTCTGGC'
p2510
sS'hsa-miR-6768-5p'
p2511
S'CACACAGGAAAAGCGGGGCCCTG'
p2512
sS'hsa-miR-6874-3p'
p2513
S'CAGTTCTGCTGTTCTGACTCTAG'
p2514
sS'hsa-miR-1229-5p'
p2515
S'GTGGGTAGGGTTTGGGGGAGAGCG'
p2516
sS'hsa-miR-3690'
p2517
S'ACCTGGACCCAGCGTAGACAAAG'
p2518
sS'hsa-miR-1249-5p'
p2519
S'AGGAGGGAGGAGATGGGCCAAGTT'
p2520
sS'hsa-miR-7110-5p'
p2521
S'TGGGGGTGTGGGGAGAGAGAG'
p2522
sS'hsa-miR-4653-3p'
p2523
S'TGGAGTTAAGGGTTGCTTGGAGA'
p2524
sS'hsa-miR-141-3p'
p2525
S'TAACACTGTCTGGTAAAGATGG'
p2526
sS'hsa-miR-3663-5p'
p2527
S'GCTGGTCTGCGTGGTGCTCGG'
p2528
sS'hsa-miR-204-3p'
p2529
S'GCTGGGAAGGCAAAGGGACGT'
p2530
sS'hsa-miR-6794-3p'
p2531
S'CTCACTCTCAGTCCCTCCCT'
p2532
sS'hsa-miR-6728-3p'
p2533
S'TCTCTGCTCTGCTCTCCCCAG'
p2534
sS'hsa-miR-6866-3p'
p2535
S'GATCCCTTTATCTGTCCTCTAG'
p2536
sS'hsa-miR-5196-5p'
p2537
S'AGGGAAGGGGACGAGGGTTGGG'
p2538
sS'hsa-miR-3591-3p'
p2539
S'AAACACCATTGTCACACTCCAC'
p2540
sS'hsa-miR-6514-3p'
p2541
S'CTGCCTGTTCTTCCACTCCAG'
p2542
sS'hsa-miR-6507-5p'
p2543
S'GAAGAATAGGAGGGACTTTGT'
p2544
sS'hsa-miR-6732-3p'
p2545
S'TAACCCTGTCCTCTCCCTCCCAG'
p2546
sS'hsa-miR-548bb-3p'
p2547
S'CAAAAACCATAGTTACTTTTGC'
p2548
sS'hsa-miR-135b-5p'
p2549
S'TATGGCTTTTCATTCCTATGTGA'
p2550
sS'hsa-miR-6797-3p'
p2551
S'TGCATGACCCTTCCCTCCCCAC'
p2552
sS'hsa-miR-6786-3p'
p2553
S'TGACGCCCCTTCTGATTCTGCCT'
p2554
sS'hsa-miR-6500-5p'
p2555
S'AGGAGCTATCCACTCCAGGTGTCC'
p2556
sS'hsa-miR-3689a-5p'
p2557
S'TGTGATATCATGGTTCCTGGGA'
p2558
sS'hsa-miR-6888-3p'
p2559
S'ATCTGTCTCGATTGTTTCCAG'
p2560
sS'hsa-miR-3200-3p'
p2561
S'CACCTTGCGCTACTCAGGTCTG'
p2562
sS'hsa-miR-181b-5p'
p2563
S'AACATTCATTGCTGTCGGTGGGT'
p2564
sS'hsa-miR-6509-3p'
p2565
S'TTCCACTGCCACTACCTAATTT'
p2566
sS'hsa-miR-4662a-3p'
p2567
S'AAAGATAGACAATTGGCTAAAT'
p2568
sS'hsa-miR-374a-3p'
p2569
S'CTTATCAGATTGTATTGTAATT'
p2570
sS'hsa-miR-3944-3p'
p2571
S'TTCGGGCTGGCCTGCTGCTCCGG'
p2572
sS'hsa-miR-3529-5p'
p2573
S'AGGTAGACTGGGATTTGTTGTT'
p2574
sS'hsa-miR-6839-3p'
p2575
S'TTGGGTTTTCTCTTCAATCCAG'
p2576
sS'hsa-miR-135a-5p'
p2577
S'TATGGCTTTTTATTCCTATGTGA'
p2578
sS'hsa-miR-6731-3p'
p2579
S'TCTATTCCCCACTCTCCCCAG'
p2580
sS'hsa-miR-6884-3p'
p2581
S'CCCATCACCTTTCCGTCTCCCCT'
p2582
sS'hsa-miR-1255a'
p2583
S'AGGATGAGCAAAGAAAGTAGATT'
p2584
sS'hsa-miR-548ar-5p'
p2585
S'AAAAGTAATTGCAGTTTTTGC'
p2586
sS'hsa-let-7a-2-3p'
p2587
S'CTGTACAGCCTCCTAGCTTTCC'
p2588
sS'hsa-miR-345-5p'
p2589
S'GCTGACTCCTAGTCCAGGGCTC'
p2590
sS'hsa-miR-379-3p'
p2591
S'TATGTAACATGGTCCACTAACT'
p2592
sS'hsa-miR-6854-5p'
p2593
S'AAGCTCAGGTTTGAGAACTGCTGA'
p2594
sS'hsa-miR-548ba'
p2595
S'AAAGGTAACTGTGATTTTTGCT'
p2596
sS'hsa-miR-4676-3p'
p2597
S'CACTGTTTCACCACTGGCTCTT'
p2598
sS'hsa-miR-216a-3p'
p2599
S'TCACAGTGGTCTCTGGGATTAT'
p2600
sS'hsa-miR-5689'
p2601
S'AGCATACACCTGTAGTCCTAGA'
p2602
sS'hsa-miR-4773'
p2603
S'CAGAACAGGAGCATAGAAAGGC'
p2604
sS'hsa-miR-4770'
p2605
S'TGAGATGACACTGTAGCT'
p2606
sS'hsa-miR-4771'
p2607
S'AGCAGACTTGACCTACAATTA'
p2608
sS'hsa-miR-5685'
p2609
S'ACAGCCCAGCAGTTATCACGGG'
p2610
sS'hsa-miR-1296-3p'
p2611
S'GAGTGGGGCTTCGACCCTAACC'
p2612
sS'hsa-miR-5687'
p2613
S'TTAGAACGTTTTAGGGTCAAAT'
p2614
sS'hsa-miR-4701-5p'
p2615
S'TTGGCCACCACACCTACCCCTT'
p2616
sS'hsa-miR-5680'
p2617
S'GAGAAATGCTGGACTAATCTGC'
p2618
sS'hsa-miR-5683'
p2619
S'TACAGATGCAGATTCTCTGACTTC'
p2620
sS'hsa-miR-4779'
p2621
S'TAGGAGGGAATAGTAAAAGCAG'
p2622
sS'hsa-miR-34c-5p'
p2623
S'AGGCAGTGTAGTTAGCTGATTGC'
p2624
sS'hsa-miR-556-5p'
p2625
S'GATGAGCTCATTGTAATATGAG'
p2626
sS'hsa-miR-1306-3p'
p2627
S'ACGTTGGCTCTGGTGGTG'
p2628
sS'hsa-miR-4760-5p'
p2629
S'TTTAGATTGAACATGAAGTTAG'
p2630
sS'hsa-miR-9500'
p2631
S'AAGGGAAGATGGTGACCAC'
p2632
sS'hsa-miR-522-5p'
p2633
S'CTCTAGAGGGAAGCGCTTTCTG'
p2634
sS'hsa-miR-6511b-5p'
p2635
S'CTGCAGGCAGAAGTGGGGCTGACA'
p2636
sS'hsa-miR-5093'
p2637
S'AGGAAATGAGGCTGGCTAGGAGC'
p2638
sS'hsa-miR-3614-5p'
p2639
S'CCACTTGGATCTGAAGGCTGCCC'
p2640
sS'hsa-miR-145-3p'
p2641
S'GGATTCCTGGAAATACTGTTCT'
p2642
sS'hsa-miR-449c-3p'
p2643
S'TTGCTAGTTGCACTCCTCTCTGT'
p2644
sS'hsa-miR-1292-5p'
p2645
S'TGGGAACGGGTTCCGGCAGACGCTG'
p2646
sS'hsa-miR-4446-3p'
p2647
S'CAGGGCTGGCAGTGACATGGGT'
p2648
sS'hsa-miR-190a-5p'
p2649
S'TGATATGTTTGATATATTAGGT'
p2650
sS'hsa-miR-6777-3p'
p2651
S'TCCACTCTCCTGGCCCCCAG'
p2652
sS'hsa-let-7i-5p'
p2653
S'TGAGGTAGTAGTTTGTGCTGTT'
p2654
sS'hsa-miR-6858-3p'
p2655
S'CAGCCAGCCCCTGCTCACCCCT'
p2656
sS'hsa-miR-7113-5p'
p2657
S'TCCAGGGAGACAGTGTGTGAG'
p2658
sS'hsa-miR-1234-3p'
p2659
S'TCGGCCTGACCACCCACCCCAC'
p2660
sS'hsa-miR-106b-5p'
p2661
S'TAAAGTGCTGACAGTGCAGAT'
p2662
sS'hsa-miR-1273a'
p2663
S'GGGCGACAAAGCAAGACTCTTTCTT'
p2664
sS'hsa-miR-3912-5p'
p2665
S'ATGTCCATATTATGGGTTAGT'
p2666
sS'hsa-miR-1273c'
p2667
S'GGCGACAAAACGAGACCCTGTC'
p2668
sS'hsa-miR-1273d'
p2669
S'GAACCCATGAGGTTGAGGCTGCAGT'
p2670
sS'hsa-miR-1273e'
p2671
S'TTGCTTGAACCCAGGAAGTGGA'
p2672
sS'hsa-miR-1273f'
p2673
S'GGAGATGGAGGTTGCAGTG'
p2674
sS'hsa-miR-3913-5p'
p2675
S'TTTGGGACTGATCTTGATGTCT'
p2676
sS'hsa-miR-758-5p'
p2677
S'GATGGTTGACCAGAGAGCACAC'
p2678
sS'hsa-miR-125a-3p'
p2679
S'ACAGGTGAGGTTCTTGGGAGCC'
p2680
sS'hsa-miR-4279'
p2681
S'CTCTCCTCCCGGCTTC'
p2682
sS'hsa-miR-3613-5p'
p2683
S'TGTTGTACTTTTTTTTTTGTTC'
p2684
sS'hsa-miR-6847-5p'
p2685
S'ACAGAGGACAGTGGAGTGTGAGC'
p2686
sS'hsa-miR-2355-5p'
p2687
S'ATCCCCAGATACAATGGACAA'
p2688
sS'hsa-miR-5006-5p'
p2689
S'TTGCCAGGGCAGGAGGTGGAA'
p2690
sS'hsa-miR-4703-5p'
p2691
S'TAGCAATACAGTACAAATATAGT'
p2692
sS'hsa-miR-2114-3p'
p2693
S'CGAGCCTCAAGCAAGGGACTT'
p2694
sS'hsa-miR-3202'
p2695
S'TGGAAGGGAGAAGAGCTTTAAT'
p2696
sS'hsa-miR-3201'
p2697
S'GGGATATGAAGAAAAAT'
p2698
sS'hsa-miR-1255b-5p'
p2699
S'CGGATGAGCAAAGAAAGTGGTT'
p2700
sS'hsa-miR-3620-3p'
p2701
S'TCACCCTGCATCCCGCACCCAG'
p2702
sS'hsa-miR-6746-5p'
p2703
S'CCGGGAGAAGGAGGTGGCCTGG'
p2704
sS'hsa-miR-548ab'
p2705
S'AAAAGTAATTGTGGATTTTGCT'
p2706
sS'hsa-miR-4794'
p2707
S'TCTGGCTATCTCACGAGACTGT'
p2708
sS'hsa-miR-548ae-3p'
p2709
S'CAAAAACTGCAATTACTTTCA'
p2710
sS'hsa-miR-4792'
p2711
S'CGGTGAGCGCTCGCTGGC'
p2712
sS'hsa-miR-137'
p2713
S'TTATTGCTTAAGAATACGCGTAG'
p2714
sS'hsa-miR-4423-3p'
p2715
S'ATAGGCACCAAAAAGCAACAA'
p2716
sS'hsa-miR-221-3p'
p2717
S'AGCTACATTGTCTGCTGGGTTTC'
p2718
sS'hsa-miR-519c-5p'
p2719
S'CTCTAGAGGGAAGCGCTTTCTG'
p2720
sS'hsa-miR-6501-3p'
p2721
S'CCAGAGCAGCCTGCGGTAACAGT'
p2722
sS'hsa-miR-329-5p'
p2723
S'GAGGTTTTCTGGGTTTCTGTTTC'
p2724
sS'hsa-miR-6881-5p'
p2725
S'TGGGGTAAGGATAGGAGGGTCA'
p2726
sS'hsa-miR-7849-3p'
p2727
S'GACAATTGTTGATCTTGGGCCT'
p2728
sS'hsa-miR-320e'
p2729
S'AAAGCTGGGTTGAGAAGG'
p2730
sS'hsa-miR-320d'
p2731
S'AAAAGCTGGGTTGAGAGGA'
p2732
sS'hsa-miR-320c'
p2733
S'AAAAGCTGGGTTGAGAGGGT'
p2734
sS'hsa-miR-320b'
p2735
S'AAAAGCTGGGTTGAGAGGGCAA'
p2736
sS'hsa-miR-320a'
p2737
S'AAAAGCTGGGTTGAGAGGGCGA'
p2738
sS'hsa-miR-4422'
p2739
S'AAAAGCATCAGGAAGTACCCA'
p2740
sS'hsa-miR-4420'
p2741
S'GTCACTGATGTCTGTAGCTGAG'
p2742
sS'hsa-miR-4421'
p2743
S'ACCTGTCTGTGGAAAGGAGCTA'
p2744
sS'hsa-miR-4426'
p2745
S'GAAGATGGACGTACTTT'
p2746
sS'hsa-miR-27b-3p'
p2747
S'TTCACAGTGGCTAAGTTCTGC'
p2748
sS'hsa-miR-4424'
p2749
S'AGAGTTAACTCAAAATGGACTA'
p2750
sS'hsa-miR-4425'
p2751
S'TGTTGGGATTCAGCAGGACCAT'
p2752
sS'hsa-miR-4731-5p'
p2753
S'TGCTGGGGGCCACATGAGTGTG'
p2754
sS'hsa-miR-675-5p'
p2755
S'TGGTGCGGAGAGGGCCCACAGTG'
p2756
sS'hsa-miR-3173-5p'
p2757
S'TGCCCTGCCTGTTTTCTCCTTT'
p2758
sS'hsa-miR-376a-3p'
p2759
S'ATCATAGAGGAAAATCCACGT'
p2760
sS'hsa-miR-6769b-5p'
p2761
S'TGGTGGGTGGGGAGGAGAAGTGC'
p2762
sS'hsa-miR-195-3p'
p2763
S'CCAATATTGGCTGTGCTGCTCC'
p2764
sS'hsa-miR-6876-5p'
p2765
S'CAGGAAGGAGACAGGCAGTTCA'
p2766
sS'hsa-miR-6729-5p'
p2767
S'TGGGCGAGGGCGGCTGAGCGGC'
p2768
sS'hsa-miR-153-3p'
p2769
S'TTGCATAGTCACAAAAGTGATC'
p2770
sS'hsa-miR-1343-3p'
p2771
S'CTCCTGGGGCCCGCACTCTCGC'
p2772
sS'hsa-miR-655-5p'
p2773
S'AGAGGTTATCCGTGTTATGTTC'
p2774
sS'hsa-miR-6516-3p'
p2775
S'ATCATGTATGATACTGCAAACA'
p2776
sS'hsa-miR-5590-3p'
p2777
S'AATAAAGTTCATGTATGGCAA'
p2778
sS'hsa-miR-4742-3p'
p2779
S'TCTGTATTCTCCTTTGCCTGCAG'
p2780
sS'hsa-miR-4671-3p'
p2781
S'TTAGTGCATAGTCTTTGGTCT'
p2782
sS'hsa-miR-517b-3p'
p2783
S'ATCGTGCATCCCTTTAGAGTGT'
p2784
sS'hsa-miR-4691-3p'
p2785
S'CCAGCCACGGACTGAGAGTGCAT'
p2786
sS'hsa-miR-301a-3p'
p2787
S'CAGTGCAATAGTATTGTCAAAGC'
p2788
sS'hsa-miR-4693-5p'
p2789
S'ATACTGTGAATTTCACTGTCACA'
p2790
sS'hsa-miR-519a-5p'
p2791
S'CTCTAGAGGGAAGCGCTTTCTG'
p2792
sS'hsa-miR-138-2-3p'
p2793
S'GCTATTTCACGACACCAGGGTT'
p2794
sS'hsa-miR-411-5p'
p2795
S'TAGTAGACCGTATAGCGTACG'
p2796
sS'hsa-miR-6769a-5p'
p2797
S'AGGTGGGTATGGAGGAGCCCT'
p2798
sS'hsa-miR-3189-5p'
p2799
S'TGCCCCATCTGTGCCCTGGGTAGGA'
p2800
sS'hsa-miR-410-3p'
p2801
S'AATATAACACAGATGGCCTGT'
p2802
sS'hsa-miR-302f'
p2803
S'TAATTGCTTCCATGTTT'
p2804
sS'hsa-miR-302e'
p2805
S'TAAGTGCTTCCATGCTT'
p2806
sS'hsa-miR-7106-5p'
p2807
S'TGGGAGGAGGGGATCTTGGG'
p2808
sS'hsa-miR-1298-5p'
p2809
S'TTCATTCGGCTGTCCAGATGTA'
p2810
sS'hsa-miR-4524b-3p'
p2811
S'GAGACAGGTTCATGCTGCTA'
p2812
sS'hsa-miR-4783-3p'
p2813
S'CCCCGGTGTTGGGGCGCGTCTGC'
p2814
sS'hsa-miR-7848-3p'
p2815
S'CTACCCTCGGTCTGCTTACCACA'
p2816
sS'hsa-miR-431-5p'
p2817
S'TGTCTTGCAGGCCGTCATGCA'
p2818
sS'hsa-miR-302d-3p'
p2819
S'TAAGTGCTTCCATGTTTGAGTGT'
p2820
sS'hsa-miR-508-5p'
p2821
S'TACTCCAGAGGGCGTCACTCATG'
p2822
sS'hsa-miR-4661-5p'
p2823
S'AACTAGCTCTGTGGATCCTGAC'
p2824
sS'hsa-miR-6860'
p2825
S'ACTGGGCAGGGCTGTGGTGAGT'
p2826
sS'hsa-miR-4687-3p'
p2827
S'TGGCTGTTGGAGGGGGCAGGC'
p2828
sS'hsa-miR-767-3p'
p2829
S'TCTGCTCATACCCCATGGTTTCT'
p2830
sS'hsa-miR-4776-3p'
p2831
S'CTTGCCATCCTGGTCCACTGCAT'
p2832
sS'hsa-miR-7107-5p'
p2833
S'TCGGCCTGGGGAGGAGGAAGGG'
p2834
sS'hsa-miR-1245b-3p'
p2835
S'TCAGATGATCTAAAGGCCTATA'
p2836
sS'hsa-miR-7850-5p'
p2837
S'GTTTGGACATAGTGTGGCTGG'
p2838
sS'hsa-miR-376c-3p'
p2839
S'AACATAGAGGAAATTCCACGT'
p2840
sS'hsa-miR-7851-3p'
p2841
S'TACCTGGGAGACTGAGGTTGGA'
p2842
sS'hsa-miR-3683'
p2843
S'TGCGACATTGGAAGTAGTATCA'
p2844
sS'hsa-miR-532-3p'
p2845
S'CCTCCCACACCCAAGGCTTGCA'
p2846
sS'hsa-miR-7113-3p'
p2847
S'CCTCCCTGCCCGCCTCTCTGCAG'
p2848
sS'hsa-miR-3687'
p2849
S'CCCGGACAGGCGTTCGTGCGACGT'
p2850
sS'hsa-miR-3686'
p2851
S'ATCTGTAAGAGAAAGTAAATGA'
p2852
sS'hsa-miR-3685'
p2853
S'TTTCCTACCCTACCTGAAGACT'
p2854
sS'hsa-miR-3684'
p2855
S'TTAGACCTAGTACACGTCCTT'
p2856
sS'hsa-miR-4700-5p'
p2857
S'TCTGGGGATGAGGACAGTGTGT'
p2858
sS'hsa-miR-1208'
p2859
S'TCACTGTTCAGACAGGCGGA'
p2860
sS'hsa-miR-6776-5p'
p2861
S'TCTGGGTGCAGTGGGGGTT'
p2862
sS'hsa-miR-1205'
p2863
S'TCTGCAGGGTTTGCTTTGAG'
p2864
sS'hsa-miR-1204'
p2865
S'TCGTGGCCTGGTCTCCATTAT'
p2866
sS'hsa-miR-181a-5p'
p2867
S'AACATTCAACGCTGTCGGTGAGT'
p2868
sS'hsa-miR-1206'
p2869
S'TGTTCATGTAGATGTTTAAGC'
p2870
sS'hsa-miR-376b-3p'
p2871
S'ATCATAGAGGAAAATCCATGTT'
p2872
sS'hsa-miR-3689b-5p'
p2873
S'TGTGATATCATGGTTCCTGGGA'
p2874
sS'hsa-miR-1202'
p2875
S'GTGCCAGCTGCAGTGGGGGAG'
p2876
sS'hsa-miR-4310'
p2877
S'GCAGCATTCATGTCCC'
p2878
sS'hsa-miR-4311'
p2879
S'GAAAGAGAGCTGAGTGTG'
p2880
sS'hsa-miR-4312'
p2881
S'GGCCTTGTTCCTGTCCCCA'
p2882
sS'hsa-miR-4313'
p2883
S'AGCCCCCTGGCCCCAAACCC'
p2884
sS'hsa-miR-4314'
p2885
S'CTCTGGGAAATGGGACAG'
p2886
sS'hsa-miR-4315'
p2887
S'CCGCTTTCTGAGCTGGAC'
p2888
sS'hsa-miR-4316'
p2889
S'GGTGAGGCTAGCTGGTG'
p2890
sS'hsa-miR-4317'
p2891
S'ACATTGCCAGGGAGTTT'
p2892
sS'hsa-miR-4318'
p2893
S'CACTGTGGGTACATGCT'
p2894
sS'hsa-miR-4319'
p2895
S'TCCCTGAGCAAAGCCAC'
p2896
sS'hsa-miR-183-5p'
p2897
S'TATGGCACTGGTAGAATTCACT'
p2898
sS'hsa-let-7c-5p'
p2899
S'TGAGGTAGTAGGTTGTATGGTT'
p2900
sS'hsa-miR-6870-3p'
p2901
S'GCTCATCCCCATCTCCTTTCAG'
p2902
sS'hsa-miR-548e-3p'
p2903
S'AAAAACTGAGACTACTTTTGCA'
p2904
sS'hsa-miR-126-3p'
p2905
S'TCGTACCGTGAGTAATAATGCG'
p2906
sS'hsa-miR-891a-5p'
p2907
S'TGCAACGAACCTGAGCCACTGA'
p2908
sS'hsa-miR-6850-5p'
p2909
S'GTGCGGAACGCTGGCCGGGGCG'
p2910
sS'hsa-miR-3934-5p'
p2911
S'TCAGGTGTGGAAACTGAGGCAG'
p2912
sS'hsa-miR-616-5p'
p2913
S'ACTCAAAACCCTTCAGTGACTT'
p2914
sS'hsa-miR-6833-3p'
p2915
S'TTTCTCTCTCCACTTCCTCAG'
p2916
sS'hsa-miR-516a-5p'
p2917
S'TTCTCGAGGAAAGAAGCACTTTC'
p2918
sS'hsa-miR-6788-5p'
p2919
S'CTGGGAGAAGAGTGGTGAAGA'
p2920
sS'hsa-miR-218-5p'
p2921
S'TTGTGCTTGATCTAACCATGT'
p2922
sS'hsa-miR-877-3p'
p2923
S'TCCTCTTCTCCCTCCTCCCAG'
p2924
sS'hsa-miR-3688-3p'
p2925
S'TATGGAAAGACTTTGCCACTCT'
p2926
sS'hsa-miR-548g-3p'
p2927
S'AAAACTGTAATTACTTTTGTAC'
p2928
sS'hsa-miR-2861'
p2929
S'GGGGCCTGGCGGTGGGCGG'
p2930
sS'hsa-miR-188-5p'
p2931
S'CATCCCTTGCATGGTGGAGGG'
p2932
sS'hsa-miR-92a-3p'
p2933
S'TATTGCACTTGTCCCGGCCTGT'
p2934
sS'hsa-miR-182-5p'
p2935
S'TTTGGCAATGGTAGAACTCACACT'
p2936
sS'hsa-miR-4433a-5p'
p2937
S'CGTCCCACCCCCCACTCCTGT'
p2938
sS'hsa-miR-664a-5p'
p2939
S'ACTGGCTAGGGAAAATGATTGGAT'
p2940
sS'hsa-miR-511-5p'
p2941
S'GTGTCTTTTGCTCTGCAGTCA'
p2942
sS'hsa-miR-6837-3p'
p2943
S'CCTTCACTGTGACTCTGCTGCAG'
p2944
sS'hsa-miR-4765'
p2945
S'TGAGTGATTGATAGCTATGTTC'
p2946
sS'hsa-miR-4757-5p'
p2947
S'AGGCCTCTGTGACGTCACGGTGT'
p2948
sS'hsa-miR-4767'
p2949
S'CGCGGGCGCTCCTGGCCGCCGCC'
p2950
sS'hsa-miR-3622b-5p'
p2951
S'AGGCATGGGAGGTCAGGTGA'
p2952
sS'hsa-miR-6811-5p'
p2953
S'ATGCAGGCCTGTGTACAGCACT'
p2954
sS'hsa-miR-499b-5p'
p2955
S'ACAGACTTGCTGTGATGTTCA'
p2956
sS'hsa-miR-92b-3p'
p2957
S'TATTGCACTCGTCCCGGCCTCC'
p2958
sS'hsa-miR-548aj-5p'
p2959
S'TGCAAAAGTAATTGCAGTTTTTG'
p2960
sS'hsa-miR-4772-3p'
p2961
S'CCTGCAACTTTGCCTGATCAGA'
p2962
sS'hsa-miR-6782-5p'
p2963
S'TAGGGGTGGGGGAATTCAGGGGTGT'
p2964
sS'hsa-miR-212-5p'
p2965
S'ACCTTGGCTCTAGACTGCTTACT'
p2966
sS'hsa-miR-518c-3p'
p2967
S'CAAAGCGCTTCTCTTTAGAGTGT'
p2968
sS'hsa-miR-422a'
p2969
S'ACTGGACTTAGGGTCAGAAGGC'
p2970
sS'hsa-miR-551b-3p'
p2971
S'GCGACCCATACTTGGTTTCAG'
p2972
sS'hsa-miR-548c-3p'
p2973
S'CAAAAATCTCAATTACTTTTGC'
p2974
sS'hsa-miR-3679-3p'
p2975
S'CTTCCCCCCAGTAATCTTCATC'
p2976
sS'hsa-miR-6086'
p2977
S'GGAGGTTGGGAAGGGCAGAG'
p2978
sS'hsa-miR-6754-5p'
p2979
S'CCAGGGAGGCTGGTTTGGAGGA'
p2980
sS'hsa-miR-7976'
p2981
S'TGCCCTGAGACTTTTGCTC'
p2982
sS'hsa-miR-3123'
p2983
S'CAGAGAATTGTTTAATC'
p2984
sS'hsa-miR-654-5p'
p2985
S'TGGTGGGCCGCAGAACATGTGC'
p2986
sS'hsa-miR-6864-3p'
p2987
S'GTGAGACTTCTCTCCCTTCAG'
p2988
sS'hsa-miR-129-5p'
p2989
S'CTTTTTGCGGTCTGGGCTTGC'
p2990
sS'hsa-miR-24-3p'
p2991
S'TGGCTCAGTTCAGCAGGAACAG'
p2992
sS'hsa-miR-6082'
p2993
S'GAATACGTCTGGTTGATCC'
p2994
sS'hsa-miR-15a-5p'
p2995
S'TAGCAGCACATAATGGTTTGTG'
p2996
sS'hsa-miR-6887-5p'
p2997
S'TGGGGGGACAGATGGAGAGGACA'
p2998
sS'hsa-miR-6823-3p'
p2999
S'TGAGCCTCTCCTTCCCTCCAG'
p3000
sS'hsa-miR-1468-5p'
p3001
S'CTCCGTTTGCCTGTTTCGCTG'
p3002
sS'hsa-miR-191-3p'
p3003
S'GCTGCGCTTGGATTTCGTCCCC'
p3004
sS'hsa-miR-548ak'
p3005
S'AAAAGTAACTGCGGTTTTTGA'
p3006
sS'hsa-miR-548ai'
p3007
S'AAAGGTAATTGCAGTTTTTCCC'
p3008
sS'hsa-miR-4999-5p'
p3009
S'TGCTGTATTGTCAGGTAGTGA'
p3010
sS'hsa-miR-548an'
p3011
S'AAAAGGCATTGTGGTTTTTG'
p3012
sS'hsa-miR-548al'
p3013
S'AACGGCAATGACTTTTGTACCA'
p3014
sS'hsa-miR-548ac'
p3015
S'CAAAAACCGGCAATTACTTTTG'
p3016
sS'hsa-miR-483-5p'
p3017
S'AAGACGGGAGGAAAGAAGGGAG'
p3018
sS'hsa-miR-548aa'
p3019
S'AAAAACCACAATTACTTTTGCACCA'
p3020
sS'hsa-miR-548ag'
p3021
S'AAAGGTAATTGTGGTTTCTGC'
p3022
sS'hsa-miR-552-3p'
p3023
S'AACAGGTGACTGGTTAGACAA'
p3024
sS'hsa-miR-548ax'
p3025
S'AGAAGTAATTGCGGTTTTGCCA'
p3026
sS'hsa-miR-488-5p'
p3027
S'CCCAGATAATGGCACTCTCAA'
p3028
sS'hsa-miR-4633-3p'
p3029
S'AGGAGCTAGCCAGGCATATGCA'
p3030
sS'hsa-miR-450b-3p'
p3031
S'TTGGGATCATTTTGCATCCATA'
p3032
sS'hsa-miR-548aw'
p3033
S'GTGCAAAAGTCATCACGGTT'
p3034
sS'hsa-miR-29b-3p'
p3035
S'TAGCACCATTTGAAATCAGTGTT'
p3036
sS'hsa-miR-216b-5p'
p3037
S'AAATCTCTGCAGGCAAATGTGA'
p3038
sS'hsa-miR-4540'
p3039
S'TTAGTCCTGCCTGTAGGTTTA'
p3040
sS'hsa-miR-4433b-5p'
p3041
S'ATGTCCCACCCCCACTCCTGT'
p3042
sS'hsa-miR-1250-5p'
p3043
S'ACGGTGCTGGATGTGGCCTTT'
p3044
sS'hsa-miR-4659b-5p'
p3045
S'TTGCCATGTCTAAGAAGAA'
p3046
sS'hsa-miR-6775-3p'
p3047
S'AGGCCCTGTCCTCTGCCCCAG'
p3048
sS'hsa-miR-545-5p'
p3049
S'TCAGTAAATGTTTATTAGATGA'
p3050
sS'hsa-miR-4788'
p3051
S'TTACGGACCAGCTAAGGGAGGC'
p3052
sS'hsa-miR-4785'
p3053
S'AGAGTCGGCGACGCCGCCAGC'
p3054
sS'hsa-miR-4784'
p3055
S'TGAGGAGATGCTGGGACTGA'
p3056
sS'hsa-miR-4780'
p3057
S'ACCCTTGAGCCTGATCCCTAGC'
p3058
sS'hsa-miR-3675-3p'
p3059
S'CATCTCTAAGGAACTCCCCCAA'
p3060
sS'hsa-miR-6800-5p'
p3061
S'GTAGGTGACAGTCAGGGGCGG'
p3062
sS'hsa-miR-4746-3p'
p3063
S'AGCGGTGCTCCTGCGGGCCGA'
p3064
sS'hsa-miR-4717-3p'
p3065
S'ACACATGGGTGGCTGTGGCCT'
p3066
sS'hsa-miR-6835-5p'
p3067
S'AGGGGGTAGAAAGTGGCTGAAG'
p3068
sS'hsa-miR-6828-5p'
p3069
S'AGGAAGCAAGAGAACCCTGTGG'
p3070
sS'hsa-miR-5699-3p'
p3071
S'TCCTGTCTTTCCTTGTTGGAGC'
p3072
sS'hsa-miR-6720-5p'
p3073
S'TTCCAGCCCTGGTAGGCGCCGCG'
p3074
sS'hsa-miR-4722-3p'
p3075
S'ACCTGCCAGCACCTCCCTGCAG'
p3076
sS'hsa-miR-4740-5p'
p3077
S'AGGACTGATCCTCTCGGGCAGG'
p3078
sS'hsa-miR-6756-5p'
p3079
S'AGGGTGGGGCTGGAGGTGGGGCT'
p3080
sS'hsa-miR-15b-3p'
p3081
S'CGAATCATTATTTGCTGCTCTA'
p3082
sS'hsa-miR-580-5p'
p3083
S'TAATGATTCATCAGACTCAGAT'
p3084
sS'hsa-miR-8068'
p3085
S'TGTTTGTTGTAAGGATCGTTGT'
p3086
sS'hsa-miR-6743-3p'
p3087
S'AGCCGCTCTTCTCCCTGCCCACA'
p3088
sS'hsa-miR-5004-5p'
p3089
S'TGAGGACAGGGCAAATTCACGA'
p3090
sS'hsa-miR-1225-3p'
p3091
S'TGAGCCCCTGTGCCGCCCCCAG'
p3092
sS'hsa-miR-4435'
p3093
S'ATGGCCAGAGCTCACACAGAGG'
p3094
sS'hsa-miR-4434'
p3095
S'AGGAGAAGTAAAGTAGAA'
p3096
sS'hsa-miR-4437'
p3097
S'TGGGCTCAGGGTACAAAGGTT'
p3098
sS'hsa-miR-3124-5p'
p3099
S'TTCGCGGGCGAAGGCAAAGTC'
p3100
sS'hsa-miR-4431'
p3101
S'GCGACTCTGAAAACTAGAAGGT'
p3102
sS'hsa-miR-4430'
p3103
S'AGGCTGGAGTGAGCGGAG'
p3104
sS'hsa-miR-4724-5p'
p3105
S'AACTGAACCAGGAGTGAGCTTCG'
p3106
sS'hsa-miR-4432'
p3107
S'AAAGACTCTGCAAGATGCCT'
p3108
sS'hsa-miR-4538'
p3109
S'GAGCTTGGATGAGCTGGGCTGA'
p3110
sS'hsa-miR-1251-5p'
p3111
S'ACTCTAGCTGCCAAAGGCGCT'
p3112
sS'hsa-miR-4438'
p3113
S'CACAGGCTTAGAAAAGACAGT'
p3114
sS'hsa-miR-4539'
p3115
S'GCTGAACTGGGCTGAGCTGGGC'
p3116
sS'hsa-miR-346'
p3117
S'TGTCTGCCCGCATGCCTGCCTCT'
p3118
sS'hsa-miR-8065'
p3119
S'TGTAGGAACAGTTGAATTTTGGCT'
p3120
sS'hsa-miR-8062'
p3121
S'CAGTGATTTGAGGATTATTGC'
p3122
sS'hsa-miR-3064-3p'
p3123
S'TTGCCACACTGCAACACCTTACA'
p3124
sS'hsa-miR-4668-3p'
p3125
S'GAAAATCCTTTTTGTTTTTCCAG'
p3126
sS'hsa-miR-4708-5p'
p3127
S'AGAGATGCCGCCTTGCTCCTT'
p3128
sS'hsa-miR-377-5p'
p3129
S'AGAGGTTGCCCTTGGTGAATTC'
p3130
sS'hsa-miR-1226-3p'
p3131
S'TCACCAGCCCTGTGTTCCCTAG'
p3132
sS'hsa-miR-3180-3p'
p3133
S'TGGGGCGGAGCTTCCGGAGGCC'
p3134
sS'hsa-miR-5697'
p3135
S'TCAAGTAGTTTCATGATAAAGG'
p3136
sS'hsa-miR-4329'
p3137
S'CCTGAGACCCTAGTTCCAC'
p3138
sS'hsa-miR-1908-3p'
p3139
S'CCGGCCGCCGGCTCCGCCCCG'
p3140
sS'hsa-miR-4439'
p3141
S'GTGACTGATACCTTGGAGGCAT'
p3142
sS'hsa-miR-6889-3p'
p3143
S'TCTGTGCCCCTACTTCCCAG'
p3144
sS'hsa-miR-8084'
p3145
S'GAATACTAAGTAAAAAATCAGTA'
p3146
sS'hsa-miR-23c'
p3147
S'ATCACATTGCCAGTGATTACCC'
p3148
sS'hsa-miR-1252-5p'
p3149
S'AGAAGGAAATTGAATTCATTTA'
p3150
sS'hsa-miR-4796-5p'
p3151
S'TGTCTATACTCTGTCACTTTAC'
p3152
sS'hsa-miR-6816-5p'
p3153
S'TGGGGCGGGGCAGGTCCCTGC'
p3154
sS'hsa-miR-4797-3p'
p3155
S'TCTCAGTAAGTGGCACTCTGT'
p3156
sS'hsa-miR-3678-5p'
p3157
S'TCCGTACAAACTCTGCTGTG'
p3158
sS'hsa-miR-33b-5p'
p3159
S'GTGCATTGCTGTTGCATTGC'
p3160
sS'hsa-miR-6836-5p'
p3161
S'CGCAGGGCCCTGGCGCAGGCAT'
p3162
sS'hsa-miR-548au-3p'
p3163
S'TGGCAGTTACTTTTGCACCAG'
p3164
sS'hsa-miR-6837-5p'
p3165
S'ACCAGGGCCAGCAGGGAATGT'
p3166
sS'hsa-miR-1288-5p'
p3167
S'GCAGATCAGGACTGTAACTCACC'
p3168
sS'hsa-miR-6722-3p'
p3169
S'TGCAGGGGTCGGGTGGGCCAGG'
p3170
sS'hsa-miR-3135a'
p3171
S'TGCCTAGGCTGAGACTGCAGTG'
p3172
sS'hsa-miR-3135b'
p3173
S'GGCTGGAGCGAGTGCAGTGGTG'
p3174
sS'hsa-miR-33a-3p'
p3175
S'CAATGTTTCCACAGTGCATCAC'
p3176
sS'hsa-miR-548as-5p'
p3177
S'AAAAGTAATTGCGGGTTTTGCC'
p3178
sS'hsa-miR-7845-5p'
p3179
S'AAGGGACAGGGAGGGTCGTGG'
p3180
sS'hsa-miR-4327'
p3181
S'GGCTTGCATGGGGGACTGG'
p3182
sS'hsa-miR-433-5p'
p3183
S'TACGGTGAGCCTGTCATTATTC'
p3184
sS'hsa-miR-432-3p'
p3185
S'CTGGATGGCTCCTCCATGTCT'
p3186
sS'hsa-miR-3162-3p'
p3187
S'TCCCTACCCCTCCACTCCCCA'
p3188
sS'hsa-miR-211-5p'
p3189
S'TTCCCTTTGTCATCCTTCGCCT'
p3190
sS'hsa-miR-6781-5p'
p3191
S'CGGGCCGGAGGTCAAGGGCGT'
p3192
sS'hsa-miR-486-3p'
p3193
S'CGGGGCAGCTCAGTACAGGAT'
p3194
sS'hsa-miR-937-5p'
p3195
S'GTGAGTCAGGGTGGGGCTGG'
p3196
sS'hsa-miR-3157-3p'
p3197
S'CTGCCCTAGTCTAGCTGAAGCT'
p3198
sS'hsa-miR-369-3p'
p3199
S'AATAATACATGGTTGATCTTT'
p3200
sS'hsa-miR-4745-3p'
p3201
S'TGGCCCGGCGACGTCTCACGGTC'
p3202
sS'hsa-miR-208b-3p'
p3203
S'ATAAGACGAACAAAAGGTTTGT'
p3204
sS'hsa-miR-6723-5p'
p3205
S'ATAGTCCGAGTAACGTCGGGGC'
p3206
sS'hsa-miR-8080'
p3207
S'GAAGGACACTGGTGTCAACGGCT'
p3208
sS'hsa-miR-7852-3p'
p3209
S'TATGTAGTAGTCAAAGGCATTT'
p3210
sS'hsa-miR-939-3p'
p3211
S'CCCTGGGCCTCTGCTCCCCAG'
p3212
sS'hsa-miR-6880-5p'
p3213
S'TGGTGGAGGAAGAGGGCAGCTC'
p3214
sS'hsa-miR-485-3p'
p3215
S'GTCATACACGGCTCTCCTCTCT'
p3216
sS'hsa-miR-101-5p'
p3217
S'CAGTTATCACAGTGCTGATGCT'
p3218
sS'hsa-miR-4666a-3p'
p3219
S'CATACAATCTGACATGTATTT'
p3220
sS'hsa-miR-198'
p3221
S'GGTCCAGAGGGGAGATAGGTTC'
p3222
sS'hsa-miR-378b'
p3223
S'ACTGGACTTGGAGGCAGAA'
p3224
sS'hsa-miR-378c'
p3225
S'ACTGGACTTGGAGTCAGAAGAGTGG'
p3226
sS'hsa-miR-378f'
p3227
S'ACTGGACTTGGAGCCAGAAG'
p3228
sS'hsa-miR-378g'
p3229
S'ACTGGGCTTGGAGTCAGAAG'
p3230
sS'hsa-miR-2276-3p'
p3231
S'TCTGCAAGTGTCAGAGGCGAGG'
p3232
sS'hsa-miR-378e'
p3233
S'ACTGGACTTGGAGTCAGGA'
p3234
sS'hsa-miR-378j'
p3235
S'ACTGGATTTGGAGCCAGAA'
p3236
sS'hsa-miR-378h'
p3237
S'ACTGGACTTGGTGTCAGATGG'
p3238
sS'hsa-miR-378i'
p3239
S'ACTGGACTAGGAGTCAGAAGG'
p3240
sS'hsa-miR-24-2-5p'
p3241
S'TGCCTACTGAGCTGAAACACAG'
p3242
sS'hsa-miR-2053'
p3243
S'GTGTTAATTAAACCTCTATTTAC'
p3244
sS'hsa-miR-193a-5p'
p3245
S'TGGGTCTTTGCGGGCGAGATGA'
p3246
sS'hsa-miR-1278'
p3247
S'TAGTACTGTGCATATCATCTAT'
p3248
sS'hsa-miR-1279'
p3249
S'TCATATTGCTTCTTTCT'
p3250
sS'hsa-miR-1270'
p3251
S'CTGGAGATATGGAAGAGCTGTGT'
p3252
sS'hsa-miR-1272'
p3253
S'GATGATGATGGCAGCAAATTCTGAAA'
p3254
sS'hsa-miR-6784-3p'
p3255
S'TCTCACCCCAACTCTGCCCCAG'
p3256
sS'hsa-miR-1275'
p3257
S'GTGGGGGAGAGGCTGTC'
p3258
sS'hsa-miR-1276'
p3259
S'TAAAGAGCCCTGTGGAGACA'
p3260
sS'hsa-miR-4303'
p3261
S'TTCTGAGCTGAGGACAG'
p3262
sS'hsa-miR-4302'
p3263
S'CCAGTGTGGCTCAGCGAG'
p3264
sS'hsa-miR-4301'
p3265
S'TCCCACTACTTCACTTGTGA'
p3266
sS'hsa-miR-4300'
p3267
S'TGGGAGCTGGACTACTTC'
p3268
sS'hsa-miR-4307'
p3269
S'AATGTTTTTTCCTGTTTCC'
p3270
sS'hsa-miR-4306'
p3271
S'TGGAGAGAAAGGCAGTA'
p3272
sS'hsa-miR-4305'
p3273
S'CCTAGACACCTCCAGTTC'
p3274
sS'hsa-miR-4304'
p3275
S'CCGGCATGTCCAGGGCA'
p3276
sS'hsa-miR-4309'
p3277
S'CTGGAGTCTAGGATTCCA'
p3278
sS'hsa-miR-4308'
p3279
S'TCCCTGGAGTTTCTTCTT'
p3280
sS'hsa-miR-4645-3p'
p3281
S'AGACAGTAGTTCTTGCCTGGTT'
p3282
sS'hsa-miR-7112-5p'
p3283
S'ACGGGCAGGGCAGTGCACCCTG'
p3284
sS'hsa-miR-6822-5p'
p3285
S'CAGGGAACCAGTTGGGGCTT'
p3286
sS'hsa-miR-6832-3p'
p3287
S'ACCCTTTTTCTCTTTCCCAG'
p3288
sS'hsa-miR-4755-5p'
p3289
S'TTTCCCTTCAGAGCCTGGCTTT'
p3290
sS'hsa-miR-6507-3p'
p3291
S'CAAAGTCCTTCCTATTTTTCCC'
p3292
sS'hsa-miR-6726-3p'
p3293
S'CTCGCCCTGTCTCCCGCTAG'
p3294
sS'hsa-miR-135b-3p'
p3295
S'ATGTAGGGCTAAAAGCCATGGG'
p3296
sS'hsa-miR-186-3p'
p3297
S'GCCCAAAGGTGAATTTTTTGGG'
p3298
sS'hsa-miR-520b'
p3299
S'AAAGTGCTTCCTTTTAGAGGG'
p3300
sS'hsa-miR-520e'
p3301
S'AAAGTGCTTCCTTTTTGAGGG'
p3302
sS'hsa-miR-3140-5p'
p3303
S'ACCTGAATTACCAAAAGCTTT'
p3304
sS'hsa-miR-520h'
p3305
S'ACAAAGTGCTTCCCTTTAGAGT'
p3306
sS'hsa-miR-6869-5p'
p3307
S'GTGAGTAGTGGCGCGCGGCGGC'
p3308
sS'hsa-miR-6868-5p'
p3309
S'ACTGGCAGAACACTGAAGCAGC'
p3310
sS'hsa-miR-6888-5p'
p3311
S'AAGGAGATGCTCAGGCAGAT'
p3312
sS'hsa-miR-29c-5p'
p3313
S'TGACCGATTTCTCCTGGTGTTC'
p3314
sS'hsa-miR-5681a'
p3315
S'AGAAAGGGTGGCAATACCTCTT'
p3316
sS'hsa-miR-5681b'
p3317
S'AGGTATTGCCACCCTTTCTAGT'
p3318
sS'hsa-miR-1305'
p3319
S'TTTTCAACTCTAATGGGAGAGA'
p3320
sS'hsa-let-7d-3p'
p3321
S'CTATACGACCTGCTGCCTTTCT'
p3322
sS'hsa-miR-1302'
p3323
S'TTGGGACATACTTATGCTAAA'
p3324
sS'hsa-miR-1303'
p3325
S'TTTAGAGACGGGGTCTTGCTCT'
p3326
sS'hsa-miR-181c-5p'
p3327
S'AACATTCAACCTGTCGGTGAGT'
p3328
sS'hsa-miR-4802-3p'
p3329
S'TACATGGATGGAAACCTTCAAGC'
p3330
sS'hsa-miR-6854-3p'
p3331
S'TGCGTTTCTCCTCTTGAGCAG'
p3332
sS'hsa-miR-548ay-3p'
p3333
S'CAAAACCGCGATTACTCTTGCA'
p3334
sS'hsa-miR-4650-5p'
p3335
S'TCAGGCCTCTTTCTACCTT'
p3336
sS'hsa-miR-509-3-5p'
p3337
S'TACTGCAGACGTGGCAATCATG'
p3338
sS'hsa-miR-625-5p'
p3339
S'AGGGGGAAAGTTCTATAGTCC'
p3340
sS'hsa-miR-6873-5p'
p3341
S'CAGAGGGAATACAGAGGGCAAT'
p3342
sS'hsa-miR-4782-5p'
p3343
S'TTCTGGATATGAAGACAATCAA'
p3344
sS'hsa-miR-548ao-3p'
p3345
S'AAAGACCGTGACTACTTTTGCA'
p3346
sS'hsa-miR-1285-3p'
p3347
S'TCTGGGCAACAAAGTGAGACCT'
p3348
sS'hsa-miR-6772-3p'
p3349
S'TTGCTCCTGACTCTGTGCCCACA'
p3350
sS'hsa-miR-1301-5p'
p3351
S'CGCTCTAGGCACCGCAGCA'
p3352
sS'hsa-miR-3145-3p'
p3353
S'AGATATTTTGAGTGTTTGGAATTG'
p3354
sS'hsa-miR-6808-3p'
p3355
S'GTGTGACCACCGTTCCTGCAG'
p3356
sS'hsa-miR-556-3p'
p3357
S'ATATTACCATTAGCTCATCTTT'
p3358
sS'hsa-miR-7-5p'
p3359
S'TGGAAGACTAGTGATTTTGTTGT'
p3360
sS'hsa-miR-3658'
p3361
S'TTTAAGAAAACACCATGGAGAT'
p3362
sS'hsa-miR-3659'
p3363
S'TGAGTGTTGTCTACGAGGGCA'
p3364
sS'hsa-miR-3654'
p3365
S'GACTGGACAAGCTGAGGAA'
p3366
sS'hsa-miR-3655'
p3367
S'GCTTGTCGCTGCGGTGTTGCT'
p3368
sS'hsa-miR-3656'
p3369
S'GGCGGGTGCGGGGGTGG'
p3370
sS'hsa-miR-3657'
p3371
S'TGTGTCCCATTATTGGTGATT'
p3372
sS'hsa-miR-3650'
p3373
S'AGGTGTGTCTGTAGAGTCC'
p3374
sS'hsa-miR-3651'
p3375
S'CATAGCCCGGTCGCTGGTACATGA'
p3376
sS'hsa-miR-3652'
p3377
S'CGGCTGGAGGTGTGAGGA'
p3378
sS'hsa-miR-522-3p'
p3379
S'AAAATGGTTCCCTTTAGAGTGT'
p3380
sS'hsa-miR-6719-3p'
p3381
S'TCTGACATCAGTGATTCTCCTG'
p3382
sS'hsa-miR-518d-3p'
p3383
S'CAAAGCGCTTCCCTTTGGAGC'
p3384
sS'hsa-miR-2115-5p'
p3385
S'AGCTTCCATGACTCCTGATGGA'
p3386
sS'hsa-miR-6771-3p'
p3387
S'CAAACCCCTGTCTACCCGCAG'
p3388
sS'hsa-miR-4446-5p'
p3389
S'ATTTCCCTGCCATTCCCTTGGC'
p3390
sS'hsa-miR-6514-5p'
p3391
S'TATGGAGTGGACTTTCAGCTGGC'
p3392
sS'hsa-miR-6777-5p'
p3393
S'ACGGGGAGTCAGGCAGTGGTGGA'
p3394
sS'hsa-miR-338-5p'
p3395
S'AACAATATCCTGGTGCTGAGTG'
p3396
sS'hsa-miR-769-5p'
p3397
S'TGAGACCTCTGGGTTCTGAGCT'
p3398
sS'hsa-miR-424-3p'
p3399
S'CAAAACGTGAGGCGCTGCTAT'
p3400
sS'hsa-miR-629-3p'
p3401
S'GTTCTCCCAACGTAAGCCCAGC'
p3402
sS'hsa-miR-339-3p'
p3403
S'TGAGCGCCTCGACGACAGAGCCG'
p3404
sS'hsa-miR-3913-3p'
p3405
S'AGACATCAAGATCAGTCCCAAA'
p3406
sS'hsa-miR-34b-5p'
p3407
S'TAGGCAGTGTCATTAGCTGATTG'
p3408
sS'hsa-miR-758-3p'
p3409
S'TTTGTGACCTGGTCCACTAACC'
p3410
sS'hsa-miR-6500-3p'
p3411
S'ACACTTGTTGGGATGACCTGC'
p3412
sS'hsa-miR-3129-3p'
p3413
S'AAACTAATCTCTACACTGCTGC'
p3414
sS'hsa-miR-6779-3p'
p3415
S'AAGCCCTGTCTCCTCCCATCT'
p3416
sS'hsa-miR-2277-5p'
p3417
S'AGCGCGGGCTGAGCGCTGCCAGTC'
p3418
sS'hsa-miR-147b'
p3419
S'GTGTGCGGAAATGCTTCTGCTA'
p3420
sS'hsa-miR-147a'
p3421
S'GTGTGTGGAAATGCTTCTGC'
p3422
sS'hsa-miR-500b-5p'
p3423
S'AATCCTTGCTACCTGGGT'
p3424
sS'hsa-miR-6747-5p'
p3425
S'AGGGGTGTGGAAAGAGGCAGAACA'
p3426
sS'hsa-miR-6853-3p'
p3427
S'TGTTCATTGGAACCCTGCGCAG'
p3428
sS'hsa-miR-4795-5p'
p3429
S'AGAAGTGGCTAATAATATTGA'
p3430
sS'hsa-miR-4703-3p'
p3431
S'TGTAGTTGTATTGTATTGCCAC'
p3432
sS'hsa-miR-6791-5p'
p3433
S'CCCCTGGGGCTGGGCAGGCGGA'
p3434
sS'hsa-miR-4726-3p'
p3435
S'ACCCAGGTTCCCTCTGGCCGCA'
p3436
sS'hsa-miR-200a-5p'
p3437
S'CATCTTACCGGACAGTGCTGGA'
p3438
sS'hsa-miR-4662b'
p3439
S'AAAGATGGACAATTGGCTAAAT'
p3440
sS'hsa-miR-5682'
p3441
S'GTAGCACCTTGCAGGATAAGGT'
p3442
sS'hsa-miR-656-5p'
p3443
S'AGGTTGCCTGTGAGGTGTTCA'
p3444
sS'hsa-miR-3591-5p'
p3445
S'TTTAGTGTGATAATGGCGTTTGA'
p3446
sS'hsa-miR-550a-3p'
p3447
S'TGTCTTACTCCCTCAGGCACAT'
p3448
sS'hsa-miR-6802-5p'
p3449
S'CTAGGTGGGGGGCTTGAAGC'
p3450
sS'hsa-miR-6859-5p'
p3451
S'GAGAGGAACATGGGCTCAGGACA'
p3452
sS'hsa-miR-6737-5p'
p3453
S'TTGGGGTGGTCGGCCCTGGAG'
p3454
sS'hsa-miR-7160-3p'
p3455
S'CAGGGCCCTGGCTTTAGCAGA'
p3456
sS'hsa-miR-10a-5p'
p3457
S'TACCCTGTAGATCCGAATTTGTG'
p3458
sS'hsa-miR-4445-5p'
p3459
S'AGATTGTTTCTTTTGCCGTGCA'
p3460
sS'hsa-miR-202-5p'
p3461
S'TTCCTATGCATATACTTCTTTG'
p3462
sS'hsa-miR-6792-5p'
p3463
S'GTAAGCAGGGGCTCTGGGTGA'
p3464
sS'hsa-miR-1470'
p3465
S'GCCCTCCGCCCGTGCACCCCG'
p3466
sS'hsa-miR-1471'
p3467
S'GCCCGCGTGTGGAGCCAGGTGT'
p3468
sS'hsa-miR-223-5p'
p3469
S'CGTGTATTTGACAAGCTGAGTT'
p3470
sS'hsa-miR-4652-5p'
p3471
S'AGGGGACTGGTTAATAGAACTA'
p3472
sS'hsa-miR-6857-3p'
p3473
S'TGACTGAGCTTCTCCCCACAG'
p3474
sS'hsa-miR-7150'
p3475
S'CTGGCAGGGGGAGAGGTA'
p3476
sS'hsa-miR-591'
p3477
S'AGACCATGGGTTCTCATTGT'
p3478
sS'hsa-miR-514a-3p'
p3479
S'ATTGACACTTCTGTGAGTAGA'
p3480
sS'hsa-miR-592'
p3481
S'TTGTGTCAATATGCGATGATGT'
p3482
sS'hsa-miR-595'
p3483
S'GAAGTGTGCCGTGGTGTGTCT'
p3484
sS'hsa-miR-596'
p3485
S'AAGCCTGCCCGGCTCCTCGGG'
p3486
sS'hsa-miR-599'
p3487
S'GTTGTGTCAGTTTATCAAAC'
p3488
sS'hsa-miR-6735-5p'
p3489
S'CAGGGCAGAGGGCACAGGAATCTGA'
p3490
sS'hsa-miR-4440'
p3491
S'TGTCGTGGGGCTTGCTGGCTTG'
p3492
sS'hsa-miR-4441'
p3493
S'ACAGGGAGGAGATTGTA'
p3494
sS'hsa-miR-4442'
p3495
S'GCCGGACAAGAGGGAGG'
p3496
sS'hsa-miR-4443'
p3497
S'TTGGAGGCGTGGGTTTT'
p3498
sS'hsa-miR-671-3p'
p3499
S'TCCGGTTCTCAGGGCTCCACC'
p3500
sS'hsa-miR-28-3p'
p3501
S'CACTAGATTGTGAGCTCCTGGA'
p3502
sS'hsa-miR-4448'
p3503
S'GGCTCCTTGGTCTAGGGGTA'
p3504
sS'hsa-miR-4449'
p3505
S'CGTCCCGGGGCTGCGCGAGGCA'
p3506
sS'hsa-miR-759'
p3507
S'GCAGAGTGCAAACAATTTTGAC'
p3508
sS'hsa-miR-4763-3p'
p3509
S'AGGCAGGGGCTGGTGCTGGGCGGG'
p3510
sS'hsa-miR-548aq-3p'
p3511
S'CAAAAACTGCAATTACTTTTGC'
p3512
sS'hsa-miR-578'
p3513
S'CTTCTTGTGCTCTAGGATTGT'
p3514
sS'hsa-miR-573'
p3515
S'CTGAAGTGATGTGTAACTGATCAG'
p3516
sS'hsa-miR-572'
p3517
S'GTCCGCTCGGCGGTGGCCCA'
p3518
sS'hsa-miR-571'
p3519
S'TGAGTTGGCCATCTGAGTGAG'
p3520
sS'hsa-miR-577'
p3521
S'TAGATAAAATATTGGTACCTG'
p3522
sS'hsa-miR-575'
p3523
S'GAGCCAGTTGGACAGGAGC'
p3524
sS'hsa-miR-6876-3p'
p3525
S'AGCTGTCTGTGTTTTCCTTCTCAG'
p3526
sS'hsa-miR-1343-5p'
p3527
S'TGGGGAGCGGCCCCCGGGTGGG'
p3528
sS'hsa-miR-655-3p'
p3529
S'ATAATACATGGTTAACCTCTTT'
p3530
sS'hsa-miR-130a-3p'
p3531
S'CAGTGCAATGTTAAAAGGGCAT'
p3532
sS'hsa-miR-4733-5p'
p3533
S'AATCCCAATGCTAGACCCGGTG'
p3534
sS'hsa-miR-520c-5p'
p3535
S'CTCTAGAGGGAAGCACTTTCTG'
p3536
sS'hsa-miR-5007-3p'
p3537
S'ATCATATGAACCAAACTCTAAT'
p3538
sS'hsa-miR-4691-5p'
p3539
S'GTCCTCCAGGCCATGAGCTGCGG'
p3540
sS'hsa-miR-5003-3p'
p3541
S'TACTTTTCTAGGTTGTTGGGG'
p3542
sS'hsa-miR-5187-5p'
p3543
S'TGGGATGAGGGATTGAAGTGGA'
p3544
sS'hsa-miR-2278'
p3545
S'GAGAGCAGTGTGTGTTGCCTGG'
p3546
sS'hsa-miR-4520-3p'
p3547
S'TTGGACAGAAAACACGCAGGAA'
p3548
sS'hsa-miR-4671-5p'
p3549
S'ACCGAAGACTGTGCGCTAATCT'
p3550
sS'hsa-miR-6752-3p'
p3551
S'TCCCTGCCCCCATACTCCCAG'
p3552
sS'hsa-miR-452-5p'
p3553
S'AACTGTTTGCAGAGGAAACTGA'
p3554
sS'hsa-miR-3682-5p'
p3555
S'CTACTTCTACCTGTGTTATCAT'
p3556
sS'hsa-miR-301a-5p'
p3557
S'GCTCTGACTTTATTGCACTACT'
p3558
sS'hsa-miR-3130-5p'
p3559
S'TACCCAGTCTCCGGTGCAGCC'
p3560
sS'hsa-miR-519a-3p'
p3561
S'AAAGTGCATCCTTTTAGAGTGT'
p3562
sS'hsa-miR-4713-3p'
p3563
S'TGGGATCCAGACAGTGGGAGAA'
p3564
sS'hsa-miR-4640-3p'
p3565
S'CACCCCCTGTTTCCTGGCCCAC'
p3566
sS'hsa-miR-410-5p'
p3567
S'AGGTTGTCTGTGATGAGTTCG'
p3568
sS'hsa-miR-3681-5p'
p3569
S'TAGTGGATGATGCACTCTGTGC'
p3570
sS'hsa-miR-3680-3p'
p3571
S'TTTTGCATGACCCTGGGAGTAGG'
p3572
sS'hsa-miR-4793-3p'
p3573
S'TCTGCACTGTGAGTTGGCTGGCT'
p3574
sS'hsa-miR-23a-3p'
p3575
S'ATCACATTGCCAGGGATTTCC'
p3576
sS'hsa-miR-4649-3p'
p3577
S'TCTGAGGCCTGCCTCTCCCCA'
p3578
sS'hsa-miR-6808-5p'
p3579
S'CAGGCAGGGAGGTGGGACCATG'
p3580
sS'hsa-miR-375'
p3581
S'TTTGTTCGTTCGGCTCGCGTGA'
p3582
sS'hsa-miR-24-1-5p'
p3583
S'TGCCTACTGAGCTGATATCAGT'
p3584
sS'hsa-miR-6816-3p'
p3585
S'GAAGGACCTGCACCTTCG'
p3586
sS'hsa-miR-1245b-5p'
p3587
S'TAGGCCTTTAGATCACTTAAA'
p3588
sS'hsa-miR-302d-5p'
p3589
S'ACTTTAACATGGAGGCACTTGC'
p3590
sS'hsa-miR-508-3p'
p3591
S'TGATTGTAGCCTTTTGGAGTAGA'
p3592
sS'hsa-miR-3692-3p'
p3593
S'GTTCCACACTGACACTGCAGAAGT'
p3594
sS'hsa-miR-8082'
p3595
S'TGATGGAGCTGGGAATACTCTG'
p3596
sS'hsa-miR-7151-3p'
p3597
S'CTACAGGCTGGAATGGGCTCA'
p3598
sS'hsa-miR-6499-5p'
p3599
S'TCGGGCGCAAGAGCACTGCAGT'
p3600
sS'hsa-miR-3191-3p'
p3601
S'TGGGGACGTAGCTGGCCAGACAG'
p3602
sS'hsa-miR-3689b-3p'
p3603
S'CTGGGAGGTGTGATATTGTGGT'
p3604
sS'hsa-miR-6810-5p'
p3605
S'ATGGGGACAGGGATCAGCATGGC'
p3606
sS'hsa-miR-4530'
p3607
S'CCCAGCAGGACGGGAGCG'
p3608
sS'hsa-miR-449b-3p'
p3609
S'CAGCCACAACTACCCTGCCACT'
p3610
sS'hsa-miR-185-3p'
p3611
S'AGGGGCTGGCTTTCCTCTGGTC'
p3612
sS'hsa-miR-625-3p'
p3613
S'GACTATAGAACTTTCCCCCTCA'
p3614
sS'hsa-miR-8073'
p3615
S'ACCTGGCAGCAGGGAGCGTCGT'
p3616
sS'hsa-miR-6758-3p'
p3617
S'ACTCATTCTCCTCTGTCCAG'
p3618
sS'hsa-miR-6513-3p'
p3619
S'TCAAGTGTCATCTGTCCCTAG'
p3620
sS'hsa-miR-6813-3p'
p3621
S'AACCTTGGCCCCTCTCCCCAG'
p3622
sS'hsa-miR-6746-3p'
p3623
S'CAGCCGCCGCCTGTCTCCACAG'
p3624
sS'hsa-miR-4531'
p3625
S'ATGGAGAAGGCTTCTGA'
p3626
sS'hsa-miR-6813-5p'
p3627
S'CAGGGGCTGGGGTTTCAGGTTCT'
p3628
sS'hsa-miR-6812-3p'
p3629
S'CCGCTCTTCCCCTGACCCCAG'
p3630
sS'hsa-miR-5589-3p'
p3631
S'TGCACATGGCAACCTAGCTCCCA'
p3632
sS'hsa-miR-374c-3p'
p3633
S'CACTTAGCAGGTTGTATTATAT'
p3634
sS'hsa-miR-1263'
p3635
S'ATGGTACCCTGGCATACTGAGT'
p3636
sS'hsa-miR-1262'
p3637
S'ATGGGTGAATTTGTAGAAGGAT'
p3638
sS'hsa-miR-1261'
p3639
S'ATGGATAAGGCTTTGGCTT'
p3640
sS'hsa-miR-1267'
p3641
S'CCTGTTGAAGTGTAATCCCCA'
p3642
sS'hsa-miR-4330'
p3643
S'CCTCAGATCAGAGCCTTGC'
p3644
sS'hsa-miR-1264'
p3645
S'CAAGTCTTATTTGAGCACCTGTT'
p3646
sS'hsa-miR-4659b-3p'
p3647
S'TTTCTTCTTAGACATGGCAGCT'
p3648
sS'hsa-miR-802'
p3649
S'CAGTAACAAAGATTCATCCTTGT'
p3650
sS'hsa-miR-6742-3p'
p3651
S'ACCTGGGTTGTCCCCTCTAG'
p3652
sS'hsa-miR-4483'
p3653
S'GGGGTGGTCTGTTGTTG'
p3654
sS'hsa-miR-499a-5p'
p3655
S'TTAAGACTTGCAGTGATGTTT'
p3656
sS'hsa-miR-451b'
p3657
S'TAGCAAGAGAACCATTACCATT'
p3658
sS'hsa-miR-3934-3p'
p3659
S'TGCTCAGGTTGCACAGCTGGGA'
p3660
sS'hsa-miR-6845-5p'
p3661
S'CGGGGCCAGAGCAGAGAGC'
p3662
sS'hsa-miR-516a-3p'
p3663
S'TGCTTCCTTTCAGAGGGT'
p3664
sS'hsa-miR-3177-3p'
p3665
S'TGCACGGCACTGGGGACACGT'
p3666
sS'hsa-miR-4791'
p3667
S'TGGATATGATGACTGAAA'
p3668
sS'hsa-miR-6796-3p'
p3669
S'GAAGCTCTCCCCTCCCCGCAG'
p3670
sS'hsa-miR-1911-5p'
p3671
S'TGAGTACCGCCATGTCTGTTGGG'
p3672
sS'hsa-miR-1185-2-3p'
p3673
S'ATATACAGGGGGAGACTCTCAT'
p3674
sS'hsa-miR-6788-3p'
p3675
S'TTCGCCACTTCCCTCCCTGCAG'
p3676
sS'hsa-miR-877-5p'
p3677
S'GTAGAGGAGATGGCGCAGGG'
p3678
sS'hsa-miR-4727-5p'
p3679
S'ATCTGCCAGCTTCCACAGTGG'
p3680
sS'hsa-miR-493-5p'
p3681
S'TTGTACATGGTAGGCTTTCATT'
p3682
sS'hsa-miR-489-5p'
p3683
S'GGTCGTATGTGTGACGCCATTT'
p3684
sS'hsa-miR-3688-5p'
p3685
S'AGTGGCAAAGTCTTTCCATAT'
p3686
sS'hsa-miR-548b-5p'
p3687
S'AAAAGTAATTGTGGTTTTGGCC'
p3688
sS'hsa-miR-3605-5p'
p3689
S'TGAGGATGGATAGCAAGGAAGCC'
p3690
sS'hsa-miR-570-5p'
p3691
S'AAAGGTAATTGCAGTTTTTCCC'
p3692
sS'hsa-miR-4680-5p'
p3693
S'AGAACTCTTGCAGTCTTAGATGT'
p3694
sS'hsa-miR-296-5p'
p3695
S'AGGGCCCCCCCTCAATCCTGT'
p3696
sS'hsa-miR-505-5p'
p3697
S'GGGAGCCAGGAAGTATTGATGT'
p3698
sS'hsa-miR-6871-3p'
p3699
S'CAGCACCCTGTGGCTCCCACAG'
p3700
sS'hsa-miR-4727-3p'
p3701
S'ATAGTGGGAAGCTGGCAGATTC'
p3702
sS'hsa-miR-6775-5p'
p3703
S'TCGGGGCATGGGGGAGGGAGGCTGG'
p3704
sS'hsa-miR-380-3p'
p3705
S'TATGTAATATGGTCCACATCTT'
p3706
sS'hsa-miR-8071'
p3707
S'CGGTGGACTGGAGTGGGTGG'
p3708
sS'hsa-miR-6893-5p'
p3709
S'CAGGCAGGTGTAGGGTGGAGC'
p3710
sS'hsa-miR-5010-5p'
p3711
S'AGGGGGATGGCAGAGCAAAATT'
p3712
sS'hsa-miR-6892-3p'
p3713
S'TCCCTCTCCCACCCCTTGCAG'
p3714
sS'hsa-miR-4643'
p3715
S'GACACATGACCATAAATGCTAA'
p3716
sS'hsa-miR-499b-3p'
p3717
S'AACATCACTGCAAGTCTTAACA'
p3718
sS'hsa-miR-660-5p'
p3719
S'TACCCATTGCATATCGGAGTTG'
p3720
sS'hsa-miR-1245a'
p3721
S'AAGTGATCTAAAGGCCTACAT'
p3722
sS'hsa-miR-3649'
p3723
S'AGGGACCTGAGTGTCTAAG'
p3724
sS'hsa-miR-181d-3p'
p3725
S'CCACCGGGGGATGAATGTCAC'
p3726
sS'hsa-miR-3646'
p3727
S'AAAATGAAATGAGCCCAGCCCA'
p3728
sS'hsa-miR-8070'
p3729
S'ATGTGATTGACGGCTGACTCCA'
p3730
sS'hsa-miR-6767-5p'
p3731
S'TCGCAGACAGGGACACATGGAGA'
p3732
sS'hsa-miR-1269b'
p3733
S'CTGGACTGAGCCATGCTACTGG'
p3734
sS'hsa-miR-1269a'
p3735
S'CTGGACTGAGCCGTGCTACTGG'
p3736
sS'hsa-miR-551b-5p'
p3737
S'GAAATCAAGCGTGGGTGAGACC'
p3738
sS'hsa-miR-520f-3p'
p3739
S'AAGTGCTTCCTTTTAGAGGGTT'
p3740
sS'hsa-miR-4694-3p'
p3741
S'CAAATGGACAGGATAACACCT'
p3742
sS'hsa-miR-525-3p'
p3743
S'GAAGGCGCTTCCCTTTAGAGCG'
p3744
sS'hsa-miR-6717-5p'
p3745
S'AGGCGATGTGGGGATGTAGAGA'
p3746
sS'hsa-miR-548ap-5p'
p3747
S'AAAAGTAATTGCGGTCTTT'
p3748
sS'hsa-miR-302a-3p'
p3749
S'TAAGTGCTTCCATGTTTTGGTGA'
p3750
sS'hsa-miR-4666b'
p3751
S'TTGCATGTCAGATTGTAATTCCC'
p3752
sS'hsa-miR-6801-3p'
p3753
S'ACCCCTGCCACTCACTGGCC'
p3754
sS'hsa-miR-6861-5p'
p3755
S'ACTGGGTAGGTGGGGCTCCAGG'
p3756
sS'hsa-miR-875-5p'
p3757
S'TATACCTCAGTTTTATCAGGTG'
p3758
sS'hsa-miR-4799-3p'
p3759
S'ACTGGCATGCTGCATTTATATA'
p3760
sS'hsa-miR-550a-3-5p'
p3761
S'AGTGCCTGAGGGAGTAAGAG'
p3762
sS'hsa-miR-889-3p'
p3763
S'TTAATATCGGACAACCATTGT'
p3764
sS'hsa-miR-222-3p'
p3765
S'AGCTACATCTGGCTACTGGGT'
p3766
sS'hsa-miR-8072'
p3767
S'GGCGGCGGGGAGGTAGGCAG'
p3768
sS'hsa-miR-4707-3p'
p3769
S'AGCCCGCCCCAGCCGAGGTTCT'
p3770
sS'hsa-miR-6887-3p'
p3771
S'TCCCCTCCACTTTCCTCCTAG'
p3772
sS'hsa-miR-19a-3p'
p3773
S'TGTGCAAATCTATGCAAAACTGA'
p3774
sS'hsa-miR-6823-5p'
p3775
S'TCAGGGTTGGTAGGGGTTGCT'
p3776
sS'hsa-miR-302b-3p'
p3777
S'TAAGTGCTTCCATGTTTTAGTAG'
p3778
sS'hsa-miR-7156-5p'
p3779
S'TTGTTCTCAAACTGGCTGTCAGA'
p3780
sS'hsa-miR-142-3p'
p3781
S'TGTAGTGTTTCCTACTTTATGGA'
p3782
sS'hsa-miR-4732-3p'
p3783
S'GCCCTGACCTGTCCTGTTCTG'
p3784
sS'hsa-miR-6851-3p'
p3785
S'TGGCCCTTTGTACCCCTCCAG'
p3786
sS'hsa-miR-8075'
p3787
S'TGCTGATGGCAGATGTCGGGTCTG'
p3788
sS'hsa-miR-5584-5p'
p3789
S'CAGGGAAATGGGAAGAACTAGA'
p3790
sS'hsa-miR-5585-3p'
p3791
S'CTGAATAGCTGGGACTACAGGT'
p3792
sS'hsa-miR-6721-5p'
p3793
S'TGGGCAGGGGCTTATTGTAGGAG'
p3794
sS'hsa-miR-516b-3p'
p3795
S'TGCTTCCTTTCAGAGGGT'
p3796
sS'hsa-miR-4474-5p'
p3797
S'TTAGTCTCATGATCAGACACA'
p3798
sS'hsa-miR-518d-5p'
p3799
S'CTCTAGAGGGAAGCACTTTCTG'
p3800
sS'hsa-miR-7157-5p'
p3801
S'TCAGCATTCATTGGCACCAGAGA'
p3802
sS'hsa-miR-6804-3p'
p3803
S'CGCACCTGCCTCTCACCCACAG'
p3804
sS'hsa-miR-3120-5p'
p3805
S'CCTGTCTGTGCCTGCTGTACA'
p3806
sS'hsa-miR-1178-5p'
p3807
S'CAGGGTCAGCTGAGCATG'
p3808
sS'hsa-miR-3121-3p'
p3809
S'TAAATAGAGTAGGCAAAGGACA'
p3810
sS'hsa-miR-4717-5p'
p3811
S'TAGGCCACAGCCACCCATGTGT'
p3812
sS'hsa-miR-1469'
p3813
S'CTCGGCGCGGGGCGCGGGCTCC'
p3814
sS'hsa-miR-197-3p'
p3815
S'TTCACCACCTTCTCCACCCAGC'
p3816
sS'hsa-miR-299-3p'
p3817
S'TATGTGGGATGGTAAACCGCTT'
p3818
sS'hsa-miR-5699-5p'
p3819
S'TGCCCCAACAAGGAAGGACAAG'
p3820
sS'hsa-miR-149-5p'
p3821
S'TCTGGCTCCGTGTCTTCACTCCC'
p3822
sS'hsa-miR-210-5p'
p3823
S'AGCCCCTGCCCACCGCACACTG'
p3824
sS'hsa-miR-6756-3p'
p3825
S'TCCCCTTCCTCCCTGCCCAG'
p3826
sS'hsa-miR-580-3p'
p3827
S'TTGAGAATGATGAATCATTAGG'
p3828
sS'hsa-miR-371b-5p'
p3829
S'ACTCAAAAGATGGCGGCACTTT'
p3830
sS'hsa-miR-5089-5p'
p3831
S'GTGGGATTTCTGAGTAGCATC'
p3832
sS'hsa-miR-586'
p3833
S'TATGCATTGTATTTTTAGGTCC'
p3834
sS'hsa-miR-587'
p3835
S'TTTCCATAGGTGATGAGTCAC'
p3836
sS'hsa-miR-519b-5p'
p3837
S'CTCTAGAGGGAAGCGCTTTCTG'
p3838
sS'hsa-miR-583'
p3839
S'CAAAGAGGAAGGTCCCATTAC'
p3840
sS'hsa-miR-651-3p'
p3841
S'AAAGGAAAGTGTATCCTAAAAG'
p3842
sS'hsa-miR-581'
p3843
S'TCTTGTGTTCTCTAGATCAGT'
p3844
sS'hsa-miR-5581-3p'
p3845
S'TTCCATGCCTCCTAGAAGTTCC'
p3846
sS'hsa-miR-588'
p3847
S'TTGGCCACAATGGGTTAGAAC'
p3848
sS'hsa-miR-331-3p'
p3849
S'GCCCCTGGGCCTATCCTAGAA'
p3850
sS'hsa-miR-4453'
p3851
S'GAGCTTGGTCTGTAGCGGTT'
p3852
sS'hsa-miR-217'
p3853
S'TACTGCATCAGGAACTGATTGGA'
p3854
sS'hsa-miR-4451'
p3855
S'TGGTAGAGCTGAGGACA'
p3856
sS'hsa-miR-4450'
p3857
S'TGGGGATTTGGAGAAGTGGTGA'
p3858
sS'hsa-miR-4457'
p3859
S'TCACAAGGTATTGACTGGCGTA'
p3860
sS'hsa-miR-4456'
p3861
S'CCTGGTGGCTTCCTTTT'
p3862
sS'hsa-miR-4455'
p3863
S'AGGGTGTGTGTGTTTTT'
p3864
sS'hsa-miR-4454'
p3865
S'GGATCCGAGTCACGGCACCA'
p3866
sS'hsa-miR-4459'
p3867
S'CCAGGAGGCGGAGGAGGTGGAG'
p3868
sS'hsa-miR-4458'
p3869
S'AGAGGTAGGTGTGGAAGAA'
p3870
sS'hsa-miR-568'
p3871
S'ATGTATAAATGTATACACAC'
p3872
sS'hsa-miR-569'
p3873
S'AGTTAATGAATCCTGGAAAGT'
p3874
sS'hsa-miR-3184-3p'
p3875
S'AAAGTCTCGCTCTCTGCCCCTCA'
p3876
sS'hsa-miR-562'
p3877
S'AAAGTAGCTGTACCATTTGC'
p3878
sS'hsa-miR-563'
p3879
S'AGGTTGACATACGTTTCCC'
p3880
sS'hsa-miR-564'
p3881
S'AGGCACGGTGTCAGCAGGC'
p3882
sS'hsa-miR-566'
p3883
S'GGGCGCCTGTGATCCCAAC'
p3884
sS'hsa-miR-567'
p3885
S'AGTATGTTCTTCCAGGACAGAAC'
p3886
sS'hsa-miR-377-3p'
p3887
S'ATCACACAAAGGCAACTTTTGT'
p3888
sS'hsa-miR-6829-5p'
p3889
S'TGGGCTGCTGAGAAGGGGCA'
p3890
sS'hsa-miR-20b-5p'
p3891
S'CAAAGTGCTCATAGTGCAGGTAG'
p3892
sS'hsa-miR-503-3p'
p3893
S'GGGGTATTGTTTCCGCTGCCAGG'
p3894
sS'hsa-miR-1252-3p'
p3895
S'CAAATGAGCTTAATTTCCTTTT'
p3896
sS'hsa-miR-548ad-3p'
p3897
S'GAAAACGACAATGACTTTTGCA'
p3898
sS'hsa-miR-4797-5p'
p3899
S'GACAGAGTGCCACTTACTGAA'
p3900
sS'hsa-miR-519e-3p'
p3901
S'AAGTGCCTCCTTTTAGAGTGTT'
p3902
sS'hsa-miR-107'
p3903
S'AGCAGCATTGTACAGGGCTATCA'
p3904
sS'hsa-miR-6802-3p'
p3905
S'TTCACCCCTCTCACCTAAGCAG'
p3906
sS'hsa-miR-5090'
p3907
S'CCGGGGCAGATTGGTGTAGGGTG'
p3908
sS'hsa-miR-5091'
p3909
S'ACGGAGACGACAAGACTGTGCTG'
p3910
sS'hsa-miR-5092'
p3911
S'AATCCACGCTGAGCTTGGCATC'
p3912
sS'hsa-miR-4681'
p3913
S'AACGGGAATGCAGGCTGTATCT'
p3914
sS'hsa-miR-5094'
p3915
S'AATCAGTGAATGCCTTGAACCT'
p3916
sS'hsa-miR-5095'
p3917
S'TTACAGGCGTGAACCACCGCG'
p3918
sS'hsa-miR-5096'
p3919
S'GTTTCACCATGTTGGTCAGGC'
p3920
sS'hsa-miR-576-3p'
p3921
S'AAGATGTGGAAAAATTGGAATC'
p3922
sS'hsa-miR-33a-5p'
p3923
S'GTGCATTGTAGTTGCATTGCA'
p3924
sS'hsa-miR-3938'
p3925
S'AATTCCCTTGTAGATAACCCGG'
p3926
sS'hsa-miR-373-3p'
p3927
S'GAAGTGCTTCGATTTTGGGGTGT'
p3928
sS'hsa-miR-99a-3p'
p3929
S'CAAGCTCGCTTCTATGGGTCTG'
p3930
sS'hsa-miR-548h-5p'
p3931
S'AAAAGTAATCGCGGTTTTTGTC'
p3932
sS'hsa-miR-548as-3p'
p3933
S'TAAAACCCACAATTATGTTTGT'
p3934
sS'hsa-miR-4649-5p'
p3935
S'TGGGCGAGGGGTGGGCTCTCAGAG'
p3936
sS'hsa-miR-4758-3p'
p3937
S'TGCCCCACCTGCTGACCACCCTC'
p3938
sS'hsa-miR-432-5p'
p3939
S'TCTTGGAGTAGGTCATTGGGTGG'
p3940
sS'hsa-miR-4689'
p3941
S'TTGAGGAGACATGGTGGGGGCC'
p3942
sS'hsa-miR-486-5p'
p3943
S'TCCTGTACTGAGCTGCCCCGAG'
p3944
sS'hsa-miR-4653-5p'
p3945
S'TCTCTGAGCAAGGCTTAACACC'
p3946
sS'hsa-miR-6799-5p'
p3947
S'GGGGAGGTGTGCAGGGCTGG'
p3948
sS'hsa-miR-6857-5p'
p3949
S'TTGGGGATTGGGTCAGGCCAGT'
p3950
sS'hsa-miR-6510-5p'
p3951
S'CAGCAGGGGAGAGAGAGGAGTC'
p3952
sS'hsa-miR-128-2-5p'
p3953
S'GGGGGCCGATACACTGTACGAGA'
p3954
sS'hsa-miR-6506-5p'
p3955
S'ACTGGGATGTCACTGAATATGGT'
p3956
sS'hsa-miR-4745-5p'
p3957
S'TGAGTGGGGCTCCCGGGACGGCG'
p3958
sS'hsa-miR-4714-5p'
p3959
S'AACTCTGACCCCTTAGGTTGAT'
p3960
sS'hsa-miR-3124-3p'
p3961
S'ACTTTCCTCACTCCCGTGAAGT'
p3962
sS'hsa-miR-194-3p'
p3963
S'CCAGTGGGGCTGCTGTTATCTG'
p3964
sS'hsa-miR-3616-3p'
p3965
S'CGAGGGCATTTCATGATGCAGGC'
p3966
sS'hsa-miR-335-3p'
p3967
S'TTTTTCATTATTGCTCCTGACC'
p3968
sS'hsa-miR-1277-5p'
p3969
S'AAATATATATATATATGTACGTAT'
p3970
sS'hsa-miR-892b'
p3971
S'CACTGGCTCCTTTCTGGGTAGA'
p3972
sS'hsa-miR-892a'
p3973
S'CACTGTGTCCTTTCTGCGTAG'
p3974
sS'hsa-miR-5010-3p'
p3975
S'TTTTGTGTCTCCCATTCCCCAG'
p3976
sS'hsa-miR-4711-3p'
p3977
S'CGTGTCTTCTGGCTTGAT'
p3978
sS'hsa-miR-101-3p'
p3979
S'TACAGTACTGTGATAACTGAA'
p3980
sS'hsa-miR-7844-5p'
p3981
S'AAAACTAGGACTGTGTGGTGTA'
p3982
sS'hsa-miR-2276-5p'
p3983
S'GCCCTCTGTCACCTTGCAGACG'
p3984
sS'hsa-miR-328-5p'
p3985
S'GGGGGGGCAGGAGGGGCTCAGGG'
p3986
sS'hsa-miR-1266-3p'
p3987
S'CCCTGTTCTATGCCCTGAGGGA'
p3988
sS'hsa-miR-6820-5p'
p3989
S'TGCGGCAGAGCTGGGGTCA'
p3990
sS'hsa-miR-1237-3p'
p3991
S'TCCTTCTGCTCCGTCCCCCAG'
p3992
sS'hsa-miR-1256'
p3993
S'AGGCATTGACTTCTCACTAGCT'
p3994
sS'hsa-miR-1257'
p3995
S'AGTGAATGATGGGTTCTGACC'
p3996
sS'hsa-miR-1254'
p3997
S'AGCCTGGAAGCTGGAGCCTGCAGT'
p3998
sS'hsa-miR-1253'
p3999
S'AGAGAAGAAGATCAGCCTGCA'
p4000
sS'hsa-miR-4321'
p4001
S'TTAGCGGTGGACCGCCCTGCG'
p4002
sS'hsa-miR-4320'
p4003
S'GGGATTCTGTAGCTTCCT'
p4004
sS'hsa-miR-4323'
p4005
S'CAGCCCCACAGCCTCAGA'
p4006
sS'hsa-miR-4322'
p4007
S'CTGTGGGCTCAGCGCGTGGGG'
p4008
sS'hsa-miR-4325'
p4009
S'TTGCACTTGTCTCAGTGA'
p4010
sS'hsa-miR-4324'
p4011
S'CCCTGAGACCCTAACCTTAA'
p4012
sS'hsa-miR-1258'
p4013
S'AGTTAGGATTAGGTCGTGGAA'
p4014
sS'hsa-miR-4326'
p4015
S'TGTTCCTCTGTCTCCCAGAC'
p4016
sS'hsa-miR-27a-3p'
p4017
S'TTCACAGTGGCTAAGTTCCGC'
p4018
sS'hsa-miR-7112-3p'
p4019
S'TGCATCACAGCCTTTGGCCCTAG'
p4020
sS'hsa-miR-143-5p'
p4021
S'GGTGCAGTGCTGCATCTCTGGT'
p4022
sS'hsa-miR-214-3p'
p4023
S'ACAGCAGGCACAGACAGGCAGT'
p4024
sS'hsa-miR-1268a'
p4025
S'CGGGCGTGGTGGTGGGGG'
p4026
sS'hsa-miR-1268b'
p4027
S'CGGGCGTGGTGGTGGGGGTG'
p4028
sS'hsa-miR-6750-3p'
p4029
S'GAACTCACCCTCTGCTCCCAG'
p4030
sS'hsa-miR-16-2-3p'
p4031
S'CCAATATTACTGTGCTGCTTTA'
p4032
sS'hsa-miR-6868-3p'
p4033
S'TTCCTTCTGTTGTCTGTGCAG'
p4034
sS'hsa-miR-3074-5p'
p4035
S'GTTCCTGCTGAACTGAGCCAG'
p4036
sS'hsa-miR-1228-5p'
p4037
S'GTGGGCGGGGGCAGGTGTGTG'
p4038
sS'hsa-miR-4747-5p'
p4039
S'AGGGAAGGAGGCTTGGTCTTAG'
p4040
sS'hsa-miR-605-5p'
p4041
S'TAAATCCCATGGTGCCTTCTCCT'
p4042
sS'hsa-miR-1322'
p4043
S'GATGATGCTGCTGATGCTG'
p4044
sS'hsa-miR-1323'
p4045
S'TCAAAACTGAGGGGCATTTTCT'
p4046
sS'hsa-miR-1321'
p4047
S'CAGGGAGGTGAATGTGAT'
p4048
sS'hsa-miR-1324'
p4049
S'CCAGACAGAATTCTATGCACTTTC'
p4050
sS'hsa-miR-6124'
p4051
S'GGGAAAAGGAAGGGGGAGGA'
p4052
sS'hsa-miR-6126'
p4053
S'GTGAAGGCCCGGCGGAGA'
p4054
sS'hsa-miR-3677-3p'
p4055
S'CTCGTGGGCTCTGGCCACGGCC'
p4056
sS'hsa-miR-370-3p'
p4057
S'GCCTGCTGGGGTGGAACCTGGT'
p4058
sS'hsa-miR-3150b-3p'
p4059
S'TGAGGAGATCGTCGAGGTTGG'
p4060
sS'hsa-miR-8054'
p4061
S'GAAAGTACAGATCGGATGGGT'
p4062
sS'hsa-miR-548ay-5p'
p4063
S'AAAAGTAATTGTGGTTTTTGC'
p4064
sS'hsa-miR-6772-5p'
p4065
S'TGGGTGTAGGCTGGAGCTGAGG'
p4066
sS'hsa-miR-887-3p'
p4067
S'GTGAACGGGCGCCATCCCGAGG'
p4068
sS'hsa-miR-550b-2-5p'
p4069
S'ATGTGCCTGAGGGAGTAAGACA'
p4070
sS'hsa-miR-31-5p'
p4071
S'AGGCAAGATGCTGGCATAGCT'
p4072
sS'hsa-miR-7154-3p'
p4073
S'AGGAGGACAAGTTGTGGGAT'
p4074
sS'hsa-miR-513b-3p'
p4075
S'AAATGTCACCTTTTTGAGAGGA'
p4076
sS'hsa-miR-3672'
p4077
S'ATGAGACTCATGTAAAACATCTT'
p4078
sS'hsa-miR-3670'
p4079
S'AGAGCTCACAGCTGTCCTTCTCTA'
p4080
sS'hsa-miR-3671'
p4081
S'ATCAAATAAGGACTAGTCTGCA'
p4082
sS'hsa-miR-7108-5p'
p4083
S'GTGTGGCCGGCAGGCGGGTGG'
p4084
sS'hsa-miR-3674'
p4085
S'ATTGTAGAACCTAAGATTGGCC'
p4086
sS'hsa-miR-148a-5p'
p4087
S'AAAGTTCTGAGACACTCCGACT'
p4088
sS'hsa-miR-4804-5p'
p4089
S'TTGGACGGTAAGGTTAAGCAA'
p4090
sS'hsa-miR-6849-3p'
p4091
S'ACCAGCCTGTGTCCACCTCCAG'
p4092
sS'hsa-miR-6730-3p'
p4093
S'CCTGACACCCCATCTGCCCTCA'
p4094
sS'hsa-miR-8066'
p4095
S'CAATGTGATCTTTTGGATGTA'
p4096
sS'hsa-miR-122-5p'
p4097
S'TGGAGTGTGACAATGGTGTTTG'
p4098
sS'hsa-miR-34a-3p'
p4099
S'CAATCAGCAAGTATACTGCCCT'
p4100
sS'hsa-miR-574-3p'
p4101
S'CACGCTCATGCACACACCCACA'
p4102
sS'hsa-miR-4686'
p4103
S'TATCTGCTGGGCTTTCTGGTGTT'
p4104
sS'hsa-miR-4682'
p4105
S'TCTGAGTTCCTGGAGCCTGGTCT'
p4106
sS'hsa-miR-4683'
p4107
S'TGGAGATCCAGTGCTCGCCCGAT'
p4108
sS'hsa-miR-4655-3p'
p4109
S'ACCCTCGTCAGGTCCCCGGGG'
p4110
sS'hsa-miR-769-3p'
p4111
S'CTGGGATCTCCGGGGTCTTGGTT'
p4112
sS'hsa-miR-4688'
p4113
S'TAGGGGCAGCAGAGGACCTGGG'
p4114
sS'hsa-miR-3922-5p'
p4115
S'TCAAGGCCAGAGGTCCCACAGCA'
p4116
sS'hsa-miR-339-5p'
p4117
S'TCCCTGTCCTCCAGGAGCTCACG'
p4118
sS'hsa-miR-34b-3p'
p4119
S'CAATCACTAACTCCACTGCCAT'
p4120
sS'hsa-miR-7158-3p'
p4121
S'CTGAACTAGAGATTGGGCCCA'
p4122
sS'hsa-miR-589-3p'
p4123
S'TCAGAACAAATGCCGGTTCCCAGA'
p4124
sS'hsa-miR-3129-5p'
p4125
S'GCAGTAGTGTAGAGATTGGTTT'
p4126
sS'hsa-miR-4690-3p'
p4127
S'GCAGCCCAGCTGAGGCCTCTG'
p4128
sS'hsa-miR-8064'
p4129
S'AGCACACTGAGCGAGCGGAC'
p4130
sS'hsa-miR-7111-3p'
p4131
S'ATCCTCTCTTCCCTCCTCCCAG'
p4132
sS'hsa-miR-1236-5p'
p4133
S'TGAGTGACAGGGGAAATGGGGA'
p4134
sS'hsa-miR-6880-3p'
p4135
S'CCGCCTTCTCTCCTCCCCCAG'
p4136
sS'hsa-miR-3653-3p'
p4137
S'CTAAGAAGTTGACTGAAG'
p4138
sS'hsa-miR-4720-3p'
p4139
S'TGCTTAAGTTGTACCAAGTAT'
p4140
sS'hsa-miR-3928-3p'
p4141
S'GGAGGAACCTTGGAGCTTCGGC'
p4142
sS'hsa-miR-500b-3p'
p4143
S'GCACCCAGGCAAGGATTCTG'
p4144
sS'hsa-miR-6853-5p'
p4145
S'AGCGTGGGATGTCCATGAAGTCAG'
p4146
sS'hsa-miR-6842-5p'
p4147
S'TGGGGGTGGTCTCTAGCCAAGG'
p4148
sS'hsa-miR-106a-3p'
p4149
S'CTGCAATGTAAGCACTTCTTAC'
p4150
sS'hsa-miR-150-3p'
p4151
S'CTGGTACAGGCCTGGGGGACAG'
p4152
sS'hsa-miR-4726-5p'
p4153
S'AGGGCCAGAGGAGCCTGGAGTGG'
p4154
sS'hsa-miR-6770-5p'
p4155
S'TGAGAAGGCACAGCTTGCACGTGA'
p4156
sS'hsa-miR-1304-3p'
p4157
S'TCTCACTGTAGCCTCGAACCCC'
p4158
sS'hsa-miR-1273h-3p'
p4159
S'CTGCAGACTCGACCTCCCAGGC'
p4160
sS'hsa-miR-26b-3p'
p4161
S'CCTGTTCTCCATTACTTGGCTC'
p4162
sS'hsa-miR-6859-3p'
p4163
S'TGACCCCCATGTCGCCTCTGTAG'
p4164
sS'hsa-miR-628-5p'
p4165
S'ATGCTGACATATTTACTAGAGG'
p4166
sS'hsa-miR-4728-3p'
p4167
S'CATGCTGACCTCCCTCCTGCCCCAG'
p4168
sS'hsa-miR-518f-5p'
p4169
S'CTCTAGAGGGAAGCACTTTCTC'
p4170
sS'hsa-miR-10a-3p'
p4171
S'CAAATTCGTATCTAGGGGAATA'
p4172
sS'hsa-miR-98-3p'
p4173
S'CTATACAACTTACTACTTTCCC'
p4174
sS'hsa-miR-202-3p'
p4175
S'AGAGGTATAGGGCATGGGAA'
p4176
sS'hsa-miR-4761-3p'
p4177
S'GAGGGCATGCGCACTTTGTCC'
p4178
sS'hsa-let-7f-1-3p'
p4179
S'CTATACAATCTATTGCCTTCCC'
p4180
sS'hsa-miR-412-3p'
p4181
S'ACTTCACCTGGTCCACTAGCCGT'
p4182
sS'hsa-miR-154-3p'
p4183
S'AATCATACACGGTTGACCTATT'
p4184
sS'hsa-miR-4485-5p'
p4185
S'ACCGCCTGCCCAGTGA'
p4186
sS'hsa-miR-30d-3p'
p4187
S'CTTTCAGTCAGATGTTTGCTGC'
p4188
sS'hsa-miR-4468'
p4189
S'AGAGCAGAAGGATGAGAT'
p4190
sS'hsa-miR-4469'
p4191
S'GCTCCCTCTAGGGTCGCTCGGA'
p4192
sS'hsa-miR-4466'
p4193
S'GGGTGCGGGCCGGCGGGG'
p4194
sS'hsa-miR-4467'
p4195
S'TGGCGGCGGTAGTTATGGGCTT'
p4196
sS'hsa-miR-4464'
p4197
S'AAGGTTTGGATAGATGCAATA'
p4198
sS'hsa-miR-4465'
p4199
S'CTCAAGTAGTCTGACCAGGGGA'
p4200
sS'hsa-miR-4462'
p4201
S'TGACACGGAGGGTGGCTTGGGAA'
p4202
sS'hsa-miR-4463'
p4203
S'GAGACTGGGGTGGGGCC'
p4204
sS'hsa-miR-4460'
p4205
S'ATAGTGGTTGTGAATTTACCTT'
p4206
sS'hsa-miR-4461'
p4207
S'GATTGAGACTAGTAGGGCTAGGC'
p4208
sS'hsa-miR-4669'
p4209
S'TGTGTCCGGGAAGTGGAGGAGG'
p4210
sS'hsa-miR-513a-3p'
p4211
S'TAAATTTCACCTTTCTGAGAAGG'
p4212
sS'hsa-miR-548az-5p'
p4213
S'CAAAAGTGATTGTGGTTTTTGC'
p4214
sS'hsa-miR-4660'
p4215
S'TGCAGCTCTGGTGGAAAATGGAG'
p4216
sS'hsa-miR-4663'
p4217
S'AGCTGAGCTCCATGGACGTGCAGT'
p4218
sS'hsa-miR-559'
p4219
S'TAAAGTAAATATGCACCAAAA'
p4220
sS'hsa-miR-558'
p4221
S'TGAGCTGCTGTACCAAAAT'
p4222
sS'hsa-miR-548aq-5p'
p4223
S'GAAAGTAATTGCTGTTTTTGCC'
p4224
sS'hsa-miR-555'
p4225
S'AGGGTAAGCTGAACCTCTGAT'
p4226
sS'hsa-miR-554'
p4227
S'GCTAGTCCTGACTCAGCCAGT'
p4228
sS'hsa-miR-557'
p4229
S'GTTTGCACGGGTGGGCCTTGTCT'
p4230
sS'hsa-miR-8061'
p4231
S'CTTAGATTAGAGGATATTGTT'
p4232
sS'hsa-miR-524-5p'
p4233
S'CTACAAAGGGAAGCACTTTCTC'
p4234
sS'hsa-miR-553'
p4235
S'AAAACGGTGAGATTTTGTTTT'
p4236
sS'hsa-miR-888-5p'
p4237
S'TACTCAAAAAGCTGTCAGTCA'
p4238
sS'hsa-miR-548y'
p4239
S'AAAAGTAATCACTGTTTTTGCC'
p4240
sS'hsa-miR-9-3p'
p4241
S'ATAAAGCTAGATAACCGAAAGT'
p4242
sS'hsa-miR-4733-3p'
p4243
S'CCACCAGGTCTAGCATTGGGAT'
p4244
sS'hsa-miR-891b'
p4245
S'TGCAACTTACCTGAGTCATTGA'
p4246
sS'hsa-miR-676-5p'
p4247
S'TCTTCAACCTCAGGACTTGCA'
p4248
sS'hsa-miR-6834-5p'
p4249
S'GTGAGGGACTGGGATTTGTGG'
p4250
sS'hsa-miR-4764-5p'
p4251
S'TGGATGTGGAAGGAGTTATCT'
p4252
sS'hsa-miR-484'
p4253
S'TCAGGCTCAGTCCCCTCCCGAT'
p4254
sS'hsa-miR-196a-5p'
p4255
S'TAGGTAGTTTCATGTTGTTGGG'
p4256
sS'hsa-miR-5194'
p4257
S'TGAGGGGTTTGGAATGGGATGG'
p4258
sS'hsa-miR-3682-3p'
p4259
S'TGATGATACAGGTGGAGGTAG'
p4260
sS'hsa-miR-5087'
p4261
S'GGGTTTGTAGCTTTGCTGGCATG'
p4262
sS'hsa-miR-4723-3p'
p4263
S'CCCTCTCTGGCTCCTCCCCAAA'
p4264
sS'hsa-miR-500a-3p'
p4265
S'ATGCACCTGGGCAAGGATTCTG'
p4266
sS'hsa-miR-7846-3p'
p4267
S'CAGCGGAGCCTGGAGAGAAGG'
p4268
sS'hsa-miR-4536-3p'
p4269
S'TCGTGCATATATCTACCACAT'
p4270
sS'hsa-miR-6755-5p'
p4271
S'TAGGGTAGACACTGACAACGTT'
p4272
sS'hsa-miR-1537-5p'
p4273
S'AGCTGTAATTAGTCAGTTTTCT'
p4274
sS'hsa-miR-3680-5p'
p4275
S'GACTCACTCACAGGATTGTGCA'
p4276
sS'hsa-miR-4662a-5p'
p4277
S'TTAGCCAATTGTCCATCTTTAG'
p4278
sS'hsa-miR-4690-5p'
p4279
S'GAGCAGGCGAGGCTGGGCTGAA'
p4280
sS'hsa-miR-95-5p'
p4281
S'TCAATAAATGTCTGTTGAATT'
p4282
sS'hsa-miR-4282'
p4283
S'TAAAATTTGCATCCAGGA'
p4284
sS'hsa-miR-3118'
p4285
S'TGTGACTGCATTATGAAAATTCT'
p4286
sS'hsa-miR-3116'
p4287
S'TGCCTGGAACATAGTAGGGACT'
p4288
sS'hsa-miR-3115'
p4289
S'ATATGGGTTTACTAGTTGGT'
p4290
sS'hsa-miR-642a-3p'
p4291
S'AGACACATTTGGAGAGGGAACC'
p4292
sS'hsa-miR-412-5p'
p4293
S'TGGTCGACCAGTTGGAAAGTAAT'
p4294
sS'hsa-miR-6748-3p'
p4295
S'TCCTGTCCCTGTCTCCTACAG'
p4296
sS'hsa-miR-491-5p'
p4297
S'AGTGGGGAACCCTTCCATGAGG'
p4298
sS'hsa-miR-4664-5p'
p4299
S'TGGGGTGCCCACTCCGCAAGTT'
p4300
sS'hsa-miR-490-3p'
p4301
S'CAACCTGGAGGACTCCATGCTG'
p4302
sS'hsa-miR-6729-3p'
p4303
S'TCATCCCCCTCGCCCTCTCAG'
p4304
sS'hsa-miR-146b-3p'
p4305
S'TGCCCTGTGGACTCAGTTCTGG'
p4306
sS'hsa-miR-6499-3p'
p4307
S'AGCAGTGTTTGTTTTGCCCACA'
p4308
sS'hsa-miR-517c-3p'
p4309
S'ATCGTGCATCCTTTTAGAGTGT'
p4310
sS'hsa-miR-3191-5p'
p4311
S'CTCTCTGGCCGTCTACCTTCCA'
p4312
sS'hsa-miR-5011-5p'
p4313
S'TATATATACAGCCATGCACTC'
p4314
sS'hsa-miR-3117-3p'
p4315
S'ATAGGACTCATATAGTGCCAG'
p4316
sS'hsa-miR-6810-3p'
p4317
S'TCCCCTGCTCCCTTGTTCCCCAG'
p4318
sS'hsa-miR-340-3p'
p4319
S'TCCGTCTCAGTTACTTTATAGC'
p4320
sS'hsa-miR-6165'
p4321
S'CAGCAGGAGGTGAGGGGAG'
p4322
sS'hsa-miR-6848-5p'
p4323
S'TGGGGGCTGGGATGGGCCATGGT'
p4324
sS'hsa-miR-1247-3p'
p4325
S'CCCCGGGAACGTCGAGACTGGAGC'
p4326
sS'hsa-miR-4738-3p'
p4327
S'TGAAACTGGAGCGCCTGGAGGA'
p4328
sS'hsa-miR-6766-5p'
p4329
S'CGGGTGGGAGCAGATCTTATTGAG'
p4330
sS'hsa-miR-6513-5p'
p4331
S'TTTGGGATTGACGCCACATGTCT'
p4332
sS'hsa-miR-6740-3p'
p4333
S'TGTCTTCTCTCCTCCCAAACAG'
p4334
sS'hsa-miR-3929'
p4335
S'GAGGCTGATGTGAGTAGACCACT'
p4336
sS'hsa-miR-6792-3p'
p4337
S'CTCCTCCACAGCCCCTGCTCAT'
p4338
sS'hsa-miR-548at-3p'
p4339
S'CAAAACCGCAGTAACTTTTGT'
p4340
sS'hsa-miR-892c-5p'
p4341
S'TATTCAGAAAGGTGCCAGTCA'
p4342
sS'hsa-miR-6812-5p'
p4343
S'ATGGGGTGAGATGGGGAGGAGCAGC'
p4344
sS'hsa-miR-4774-5p'
p4345
S'TCTGGTATGTAGTAGGTAATAA'
p4346
sS'hsa-miR-1243'
p4347
S'AACTGGATCAATTATAGGAGTG'
p4348
sS'hsa-miR-1244'
p4349
S'AAGTAGTTGGTTTGTATGAGATGGTT'
p4350
sS'hsa-miR-1246'
p4351
S'AATGGATTTTTGGAGCAGG'
p4352
sS'hsa-miR-1248'
p4353
S'ACCTTCTTGTATAAGCACTGTGCTAAA'
p4354
sS'hsa-miR-5195-3p'
p4355
S'ATCCAGTTCTCTGAGGGGGCT'
p4356
sS'hsa-miR-6852-5p'
p4357
S'CCCTGGGGTTCTGAGGACATG'
p4358
sS'hsa-miR-532-5p'
p4359
S'CATGCCTTGAGTGTAGGACCGT'
p4360
sS'hsa-miR-6076'
p4361
S'AGCATGACAGAGGAGAGGTGG'
p4362
sS'hsa-miR-520a-5p'
p4363
S'CTCCAGAGGGAAGTACTTTCT'
p4364
sS'hsa-miR-4766-5p'
p4365
S'TCTGAAAGAGCAGTTGGTGTT'
p4366
sS'hsa-miR-3177-5p'
p4367
S'TGTGTACACACGTGCCAGGCGCT'
p4368
sS'hsa-miR-1180-3p'
p4369
S'TTTCCGGCTCGCGTGGGTGTGT'
p4370
sS'hsa-miR-3689e'
p4371
S'TGTGATATCATGGTTCCTGGGA'
p4372
sS'hsa-miR-489-3p'
p4373
S'GTGACATCACATATACGGCAGC'
p4374
sS'hsa-miR-548x-5p'
p4375
S'TGCAAAAGTAATTGCAGTTTTTG'
p4376
sS'hsa-miR-382-3p'
p4377
S'AATCATTCACGGACAACACTT'
p4378
sS'hsa-miR-4260'
p4379
S'CTTGGGGCATGGAGTCCCA'
p4380
sS'hsa-miR-4261'
p4381
S'AGGAAACAGGGACCCA'
p4382
sS'hsa-miR-4262'
p4383
S'GACATTCAGACTACCTG'
p4384
sS'hsa-miR-4263'
p4385
S'ATTCTAAGTGCCTTGGCC'
p4386
sS'hsa-miR-4264'
p4387
S'ACTCAGTCATGGTCATT'
p4388
sS'hsa-miR-4265'
p4389
S'CTGTGGGCTCAGCTCTGGG'
p4390
sS'hsa-miR-4266'
p4391
S'CTAGGAGGCCTTGGCC'
p4392
sS'hsa-miR-4267'
p4393
S'TCCAGCTCGGTGGCAC'
p4394
sS'hsa-miR-4268'
p4395
S'GGCTCCTCCTCTCAGGATGTG'
p4396
sS'hsa-miR-4269'
p4397
S'GCAGGCACAGACAGCCCTGGC'
p4398
sS'hsa-miR-505-3p'
p4399
S'CGTCAACACTTGCTGGTTTCCT'
p4400
sS'hsa-miR-6871-5p'
p4401
S'CATGGGAGTTCGGGGTGGTTGC'
p4402
sS'hsa-miR-200b-5p'
p4403
S'CATCTTACTGGGCAGCATTGGA'
p4404
sS'hsa-miR-6827-3p'
p4405
S'ACCGTCTCTTCTGTTCCCCAG'
p4406
sS'hsa-miR-494-3p'
p4407
S'TGAAACATACACGGGAAACCTC'
p4408
sS'hsa-miR-127-3p'
p4409
S'TCGGATCCGTCTGAGCTTGGCT'
p4410
sS'hsa-miR-105-5p'
p4411
S'TCAAATGCTCAGACTCCTGTGGT'
p4412
sS'hsa-miR-133b'
p4413
S'TTTGGTCCCCTTCAACCAGCTA'
p4414
sS'hsa-miR-6892-5p'
p4415
S'GTAAGGGACCGGAGAGTAGGA'
p4416
sS'hsa-miR-1910-5p'
p4417
S'CCAGTCCTGTGCCTGCCGCCT'
p4418
sS'hsa-miR-1233-3p'
p4419
S'TGAGCCCTGTCCTCCCGCAG'
p4420
sS'hsa-miR-585-5p'
p4421
S'CTAGCACACAGATACGCCCAGA'
p4422
sS'hsa-miR-3666'
p4423
S'CAGTGCAAGTGTAGATGCCGA'
p4424
sS'hsa-miR-3661'
p4425
S'TGACCTGGGACTCGGACAGCTG'
p4426
sS'hsa-miR-3660'
p4427
S'ACTGACAGGAGAGCATTTTGA'
p4428
sS'hsa-miR-3662'
p4429
S'GAAAATGATGAGTAGTGACTGATG'
p4430
sS'hsa-miR-6883-3p'
p4431
S'TTCCCTATCTCACTCTCCTCAG'
p4432
sS'hsa-miR-1199-3p'
p4433
S'TGCGGCCGGTGCTCAACCTGC'
p4434
sS'hsa-miR-3668'
p4435
S'AATGTAGAGATTGATCAAAAT'
p4436
sS'hsa-miR-224-3p'
p4437
S'AAAATGGTGCCCTAGTGACTACA'
p4438
sS'hsa-miR-5591-3p'
p4439
S'ATACCCATAGCTTAGCTCCCA'
p4440
sS'hsa-miR-3940-5p'
p4441
S'GTGGGTTGGGGCGGGCTCTG'
p4442
sS'hsa-miR-4743-3p'
p4443
S'TTTCTGTCTTTTCTGGTCCAG'
p4444
sS'hsa-miR-302a-5p'
p4445
S'ACTTAAACGTGGATGTACTTGCT'
p4446
sS'hsa-miR-487b-5p'
p4447
S'GTGGTTATCCCTGTCCTGTTCG'
p4448
sS'hsa-miR-6879-3p'
p4449
S'TGTCACCCGCTCCTTGCCCAG'
p4450
sS'hsa-miR-875-3p'
p4451
S'CCTGGAAACACTGAGGTTGTG'
p4452
sS'hsa-miR-100-5p'
p4453
S'AACCCGTAGATCCGAACTTGTG'
p4454
sS'hsa-miR-4696'
p4455
S'TGCAAGACGGATACTGTCATCT'
p4456
sS'hsa-miR-4698'
p4457
S'TCAAAATGTAGAGGAAGACCCCA'
p4458
sS'hsa-miR-6776-3p'
p4459
S'CAACCACCACTGTCTCTCCCCAG'
p4460
sS'hsa-miR-5586-5p'
p4461
S'TATCCAGCTTGTTACTATATGC'
p4462
sS'hsa-miR-6895-5p'
p4463
S'CAGGGCCAGGCACAGAGTAAG'
p4464
sS'hsa-miR-19a-5p'
p4465
S'AGTTTTGCATAGTTGCACTACA'
p4466
sS'hsa-miR-4507'
p4467
S'CTGGGTTGGGCTGGGCTGGG'
p4468
sS'hsa-miR-770-5p'
p4469
S'TCCAGTACCACGTGTCAGGGCCA'
p4470
sS'hsa-miR-218-2-3p'
p4471
S'CATGGTTCTGTCAAGCACCGCG'
p4472
sS'hsa-miR-142-5p'
p4473
S'CATAAAGTAGAAAGCACTACT'
p4474
sS'hsa-miR-6757-5p'
p4475
S'TAGGGATGGGAGGCCAGGATGA'
p4476
sS'hsa-miR-5787'
p4477
S'GGGCTGGGGCGCGGGGAGGT'
p4478
sS'hsa-miR-6840-5p'
p4479
S'ACCCCCGGGCAAAGACCTGCAGAT'
p4480
sS'hsa-miR-4501'
p4481
S'TATGTGACCTCGGATGAATCA'
p4482
sS'hsa-miR-6841-3p'
p4483
S'ACCTTGCATCTGCATCCCCAG'
p4484
sS'hsa-miR-6715a-3p'
p4485
S'CCAAACCAGTCGTGCCTGTGG'
p4486
sS'hsa-miR-3714'
p4487
S'GAAGGCAGCAGTGCTCCCCTGT'
p4488
sS'hsa-miR-6817-3p'
p4489
S'TCTCTCTGACTCCATGGCA'
p4490
sS'hsa-miR-361-5p'
p4491
S'TTATCAGAATCTCCAGGGGTAC'
p4492
sS'hsa-miR-5585-5p'
p4493
S'TGAAGTACCAGCTACTCGAGAG'
p4494
sS'hsa-miR-7853-5p'
p4495
S'TCAAATGCAGATCCTGACTTC'
p4496
sS'hsa-miR-20a-5p'
p4497
S'TAAAGTGCTTATAGTGCAGGTAG'
p4498
sS'hsa-miR-4760-3p'
p4499
S'AAATTCATGTTCAATCTAAACC'
p4500
sS'hsa-miR-4803'
p4501
S'TAACATAATAGTGTGGATTGA'
p4502
sS'hsa-miR-6814-3p'
p4503
S'ACTCGCATCCTTCCCTTGGCAG'
p4504
sS'hsa-miR-3121-5p'
p4505
S'TCCTTTGCCTATTCTATTTAAG'
p4506
sS'hsa-miR-4749-3p'
p4507
S'CGCCCCTCCTGCCCCCACAG'
p4508
sS'hsa-miR-1178-3p'
p4509
S'TTGCTCACTGTTCTTCCCTAG'
p4510
sS'hsa-miR-92a-2-5p'
p4511
S'GGGTGGGGATTTGTTGCATTAC'
p4512
sS'hsa-miR-210-3p'
p4513
S'CTGTGCGTGTGACAGCGGCTGA'
p4514
sS'hsa-miR-323b-3p'
p4515
S'CCCAATACACGGTCGACCTCTT'
p4516
sS'hsa-miR-96-5p'
p4517
S'TTTGGCACTAGCACATTTTTGCT'
p4518
sS'hsa-miR-1273g-3p'
p4519
S'ACCACTGCACTCCAGCCTGAG'
p4520
sS'hsa-miR-1207-5p'
p4521
S'TGGCAGGGAGGCTGGGAGGGG'
p4522
sS'hsa-miR-4715-5p'
p4523
S'AAGTTGGCTGCAGTTAAGGTGG'
p4524
sS'hsa-miR-4479'
p4525
S'CGCGCGGCCGTGCTCGGAGCAG'
p4526
sS'hsa-miR-4478'
p4527
S'GAGGCTGAGCTGAGGAG'
p4528
sS'hsa-miR-6803-5p'
p4529
S'CTGGGGGTGGGGGGCTGGGCGT'
p4530
sS'hsa-miR-181b-2-3p'
p4531
S'CTCACTGATCAATGAATGCA'
p4532
sS'hsa-miR-762'
p4533
S'GGGGCTGGGGCCGGGGCCGAGC'
p4534
sS'hsa-miR-331-5p'
p4535
S'CTAGGTATGGTCCCAGGGATCC'
p4536
sS'hsa-miR-760'
p4537
S'CGGCTCTGGGTCTGTGGGGA'
p4538
sS'hsa-miR-761'
p4539
S'GCAGCAGGGTGAAACTGACACA'
p4540
sS'hsa-miR-4475'
p4541
S'CAAGGGACCAAGCATTCATTAT'
p4542
sS'hsa-miR-615-3p'
p4543
S'TCCGAGCCTGGGTCTCCCTCTT'
p4544
sS'hsa-miR-3151-5p'
p4545
S'GGTGGGGCAATGGGATCAGGT'
p4546
sS'hsa-miR-1185-5p'
p4547
S'AGAGGATACCCTTTGTATGTT'
p4548
sS'hsa-miR-4679'
p4549
S'TCTGTGATAGAGATTCTTTGCT'
p4550
sS'hsa-miR-4678'
p4551
S'AAGGTATTGTTCAGACTTATGA'
p4552
sS'hsa-miR-4675'
p4553
S'GGGGCTGTGATTGACCAGCAGG'
p4554
sS'hsa-miR-4674'
p4555
S'CTGGGCTCGGGACGCGCGGCT'
p4556
sS'hsa-miR-4673'
p4557
S'TCCAGGCAGGAGCCGGACTGGA'
p4558
sS'hsa-miR-4672'
p4559
S'TTACACAGCTGGACAGAGGCA'
p4560
sS'hsa-miR-6774-3p'
p4561
S'TCGTGTCCCTCTTGTCCACAG'
p4562
sS'hsa-miR-543'
p4563
S'AAACATTCGCGGTGCACTTCTT'
p4564
sS'hsa-miR-371a-3p'
p4565
S'AAGTGCCGCCATCTTTTGAGTGT'
p4566
sS'hsa-miR-6745'
p4567
S'TGGGTGGAAGAAGGTCTGGTT'
p4568
sS'hsa-miR-423-5p'
p4569
S'TGAGGGGCAGAGAGCGAGACTTT'
p4570
sS'hsa-miR-6801-5p'
p4571
S'TGGTCAGAGGCAGCAGGAAATGA'
p4572
sS'hsa-miR-6511b-3p'
p4573
S'CCTCACCACCCCTTCTGCCTGCA'
p4574
sS'hsa-miR-20b-3p'
p4575
S'ACTGTAGTATGGGCACTTCCAG'
p4576
sS'hsa-miR-1539'
p4577
S'TCCTGCGCGTCCCAGATGCCC'
p4578
sS'hsa-miR-1538'
p4579
S'CGGCCCGGGCTGCTGCTGTTCCT'
p4580
sS'hsa-miR-498'
p4581
S'TTTCAAGCCAGGGGGCGTTTTTC'
p4582
sS'hsa-miR-6851-5p'
p4583
S'AGGAGGTGGTACTAGGGGCCAGC'
p4584
sS'hsa-miR-496'
p4585
S'TGAGTATTACATGGCCAATCTC'
p4586
sS'hsa-miR-492'
p4587
S'AGGACCTGCGGGACAAGATTCTT'
p4588
sS'hsa-miR-3622a-3p'
p4589
S'TCACCTGACCTCCCATGCCTGT'
p4590
sS'hsa-miR-134-5p'
p4591
S'TGTGACTGGTTGACCAGAGGGG'
p4592
sS'hsa-miR-525-5p'
p4593
S'CTCCAGAGGGATGCACTTTCT'
p4594
sS'hsa-miR-548ad-5p'
p4595
S'AAAAGTAATTGTGGTTTTTG'
p4596
sS'hsa-miR-518b'
p4597
S'CAAAGCGCTCCCCTTTAGAGGT'
p4598
sS'hsa-miR-3155b'
p4599
S'CCAGGCTCTGCAGTGGGA'
p4600
sS'hsa-miR-3155a'
p4601
S'CCAGGCTCTGCAGTGGGAACT'
p4602
sS'hsa-let-7g-3p'
p4603
S'CTGTACAGGCCACTGCCTTGC'
p4604
sS'hsa-miR-4725-5p'
p4605
S'AGACCCTGCAGCCTTCCCACC'
p4606
sS'hsa-miR-6787-3p'
p4607
S'TCTCAGCTGCTGCCCTCTCCAG'
p4608
sS'hsa-miR-5588-3p'
p4609
S'AAGTCCCACTAATGCCAGC'
p4610
sS'hsa-miR-3192-5p'
p4611
S'TCTGGGAGGTTGTAGCAGTGGAA'
p4612
sS'hsa-miR-659-5p'
p4613
S'AGGACCTTCCCTGAACCAAGGA'
p4614
sS'hsa-miR-6764-3p'
p4615
S'TCTCTGGTCTTTCCTTGACAG'
p4616
sS'hsa-miR-4253'
p4617
S'AGGGCATGTCCAGGGGGT'
p4618
sS'hsa-miR-99a-5p'
p4619
S'AACCCGTAGATCCGATCTTGTG'
p4620
sS'hsa-miR-1227-3p'
p4621
S'CGTGCCACCCTTTTCCCCAG'
p4622
sS'hsa-miR-5692a'
p4623
S'CAAATAATACCACAGTGGGTGT'
p4624
sS'hsa-miR-3927-5p'
p4625
S'GCCTATCACATATCTGCCTGT'
p4626
sS'hsa-miR-5692b'
p4627
S'AATAATATCACAGTAGGTGT'
p4628
sS'hsa-miR-6738-5p'
p4629
S'CGAGGGGTAGAAGAGCACAGGGG'
p4630
sS'hsa-miR-6882-5p'
p4631
S'TACAAGTCAGGAGCTGAAGCAG'
p4632
sS'hsa-miR-3128'
p4633
S'TCTGGCAAGTAAAAAACTCTCAT'
p4634
sS'hsa-miR-384'
p4635
S'ATTCCTAGAAATTGTTCATA'
p4636
sS'hsa-miR-3122'
p4637
S'GTTGGGACAAGAGGACGGTCTT'
p4638
sS'hsa-miR-2682-3p'
p4639
S'CGCCTCTTCAGCGCTGTCTTCC'
p4640
sS'hsa-miR-579-5p'
p4641
S'TCGCGGTTTGTGCCAGATGACG'
p4642
sS'hsa-miR-4667-3p'
p4643
S'TCCCTCCTTCTGTCCCCACAG'
p4644
sS'hsa-miR-3125'
p4645
S'TAGAGGAAGCTGTGGAGAGA'
p4646
sS'hsa-miR-6790-5p'
p4647
S'GTGAGTGTGGATTTGGCGGGGTT'
p4648
sS'hsa-miR-873-3p'
p4649
S'GGAGACTGATGAGTTCCCGGGA'
p4650
sS'hsa-miR-4328'
p4651
S'CCAGTTTTCCCAGGATT'
p4652
sS'hsa-miR-194-5p'
p4653
S'TGTAACAGCAACTCCATGTGGA'
p4654
sS'hsa-miR-5186'
p4655
S'AGAGATTGGTAGAAATCAGGT'
p4656
sS'hsa-miR-7978'
p4657
S'TCTGGTGTATAGCGTTGCTCA'
p4658
sS'hsa-miR-7975'
p4659
S'ATCCTAGTCACGGCACCA'
p4660
sS'hsa-miR-7974'
p4661
S'AGGCTGTGATGCTCTCCTGAGCCC'
p4662
sS'hsa-miR-944'
p4663
S'AAATTATTGTACATCGGATGAG'
p4664
sS'hsa-miR-3616-5p'
p4665
S'ATGAAGTGCACTCATGATATGT'
p4666
sS'hsa-miR-943'
p4667
S'CTGACTGTTGCCGTCCTCCAG'
p4668
sS'hsa-miR-940'
p4669
S'AAGGCAGGGCCCCCGCTCCCC'
p4670
sS'hsa-miR-941'
p4671
S'CACCCGGCTGTGTGCACATGTGC'
p4672
sS'hsa-miR-2681-3p'
p4673
S'TATCATGGAGTTGGTAAAGCAC'
p4674
sS'hsa-miR-6875-3p'
p4675
S'ATTCTTCCTGCCCTGGCTCCAT'
p4676
sS'hsa-miR-6768-3p'
p4677
S'CAAAGGCCACATTCTCCTGTGCAC'
p4678
sS'hsa-miR-4639-5p'
p4679
S'TTGCTAAGTAGGCTGAGATTGA'
p4680
sS'hsa-miR-4677-3p'
p4681
S'TCTGTGAGACCAAAGAACTACT'
p4682
sS'hsa-miR-5583-3p'
p4683
S'GAATATGGGTATATTAGTTTGG'
p4684
sS'hsa-miR-4638-3p'
p4685
S'CCTGGACACCGCTCAGCCGGCCG'
p4686
sS'hsa-miR-1237-5p'
p4687
S'CGGGGGCGGGGCCGAAGCGCG'
p4688
sS'hsa-miR-141-5p'
p4689
S'CATCTTCCAGTACAGTGTTGGA'
p4690
sS'hsa-miR-708-3p'
p4691
S'CAACTAGACTGTGAGCTTCTAG'
p4692
sS'hsa-miR-1908-5p'
p4693
S'CGGCGGGGACGGCGATTGGTC'
p4694
sS'hsa-miR-520d-3p'
p4695
S'AAAGTGCTTCTCTTTGGTGGGT'
p4696
sS'hsa-miR-10b-5p'
p4697
S'TACCCTGTAGAACCGAATTTGTG'
p4698
sS'hsa-miR-6809-5p'
p4699
S'TGGCAAGGAAAGAAGAGGATCA'
p4700
sS'hsa-miR-7854-3p'
p4701
S'TGAGGTGACCGCAGATGGGAA'
p4702
sS'hsa-miR-365a-3p'
p4703
S'TAATGCCCCTAAAAATCCTTAT'
p4704
sS'hsa-miR-3689a-3p'
p4705
S'CTGGGAGGTGTGATATCGTGGT'
p4706
sS'hsa-miR-6512-5p'
p4707
S'TACCATTAGAAGAGCTGGAAGA'
p4708
sS'hsa-miR-193b-5p'
p4709
S'CGGGGTTTTGAGGGCGAGATGA'
p4710
sS'hsa-miR-3158-3p'
p4711
S'AAGGGCTTCCTCTCTGCAGGAC'
p4712
sS'hsa-miR-515-3p'
p4713
S'GAGTGCCTTCTTTTGGAGCGTT'
p4714
sS'hsa-miR-6780a-5p'
p4715
S'TTGGGAGGGAAGACAGCTGGAGA'
p4716
sS'hsa-miR-3074-3p'
p4717
S'GATATCAGCTCAGTAGGCACCG'
p4718
sS'hsa-miR-6821-5p'
p4719
S'GTGCGTGGTGGCTCGAGGCGGGG'
p4720
sS'hsa-miR-3529-3p'
p4721
S'AACAACAAAATCACTAGTCTTCCA'
p4722
sS'hsa-miR-3907'
p4723
S'AGGTGCTCCAGGCTGGCTCACA'
p4724
sS'hsa-miR-135a-3p'
p4725
S'TATAGGGATTGGAGCCGTGGCG'
p4726
sS'hsa-miR-3908'
p4727
S'GAGCAATGTAGGTAGACTGTTT'
p4728
sS'hsa-miR-3909'
p4729
S'TGTCCTCTAGGGCCTGCAGTCT'
p4730
sS'hsa-miR-4273'
p4731
S'GTGTTCTCTGATGGACAG'
p4732
sS'hsa-miR-4272'
p4733
S'CATTCAACTAGTGATTGT'
p4734
sS'hsa-miR-4271'
p4735
S'GGGGGAAGAAAAGGTGGGG'
p4736
sS'hsa-miR-4270'
p4737
S'TCAGGGAGTCAGGGGAGGGC'
p4738
sS'hsa-miR-4277'
p4739
S'GCAGTTCTGAGCACAGTACAC'
p4740
sS'hsa-miR-4276'
p4741
S'CTCAGTGACTCATGTGC'
p4742
sS'hsa-miR-4275'
p4743
S'CCAATTACCACTTCTTT'
p4744
sS'hsa-miR-4274'
p4745
S'CAGCAGTCCCTCCCCCTG'
p4746
sS'hsa-miR-1184'
p4747
S'CCTGCAGCGACTTGATGGCTTCC'
p4748
sS'hsa-miR-4278'
p4749
S'CTAGGGGGTTTGCCCTTG'
p4750
sS'hsa-miR-1182'
p4751
S'GAGGGTCTTGGGAGGGATGTGAC'
p4752
sS'hsa-miR-1183'
p4753
S'CACTGTAGGTGATGGTGAGAGTGGGCA'
p4754
sS'hsa-miR-1181'
p4755
S'CCGTCGCCGCCACCCGAGCCG'
p4756
sS'hsa-miR-370-5p'
p4757
S'CAGGTCACGTCTCTGCAGTTAC'
p4758
sS'hsa-miR-99b-5p'
p4759
S'CACCCGTAGAACCGACCTTGCG'
p4760
sS'hsa-miR-3925-5p'
p4761
S'AAGAGAACTGAAAGTGGAGCCT'
p4762
sS'hsa-let-7f-5p'
p4763
S'TGAGGTAGTAGATTGTATAGTT'
p4764
sS'hsa-miR-487a-5p'
p4765
S'GTGGTTATCCCTGCTGTGTTCG'
p4766
sS'hsa-miR-6736-5p'
p4767
S'CTGGGTGAGGGCATCTGTGGT'
p4768
sS'hsa-miR-7152-3p'
p4769
S'TCTGGTCCTGGACAGGAGGC'
p4770
sS'hsa-miR-3187-3p'
p4771
S'TTGGCCATGGGGCTGCGCGG'
p4772
sS'hsa-miR-539-5p'
p4773
S'GGAGAAATTATCCTTGGTGTGT'
p4774
sS'hsa-miR-4787-5p'
p4775
S'GCGGGGGTGGCGGCGGCATCCC'
p4776
sS'hsa-miR-3150b-5p'
p4777
S'CAACCTCGAGGATCTCCCCAGC'
p4778
sS'hsa-miR-887-5p'
p4779
S'CTTGGGAGCCCTGTTAGACTC'
p4780
sS'hsa-miR-7154-5p'
p4781
S'TTCATGAACTGGGTCTAGCTTGG'
p4782
sS'hsa-miR-3610'
p4783
S'GAATCGGAAAGGAGGCGCCG'
p4784
sS'hsa-miR-3611'
p4785
S'TTGTGAAGAAAGAAATTCTTA'
p4786
sS'hsa-miR-3612'
p4787
S'AGGAGGCATCTTGAGAAATGGA'
p4788
sS'hsa-miR-593-5p'
p4789
S'AGGCACCAGCCAGGCATTGCTCAGC'
p4790
sS'hsa-miR-6515-3p'
p4791
S'TCTCTTCATCTACCCCCCAG'
p4792
sS'hsa-miR-3615'
p4793
S'TCTCTCGGCTCCTCGCGGCTC'
p4794
sS'hsa-miR-3618'
p4795
S'TGTCTACATTAATGAAAAGAGC'
p4796
sS'hsa-miR-4804-3p'
p4797
S'TGCTTAACCTTGCCCTCGAAA'
p4798
sS'hsa-miR-3606-3p'
p4799
S'AAAATTTCTTTCACTACTTAG'
p4800
sS'hsa-miR-1287-5p'
p4801
S'TGCTGGATCAGTGGTTCGAGTC'
p4802
sS'hsa-miR-6849-5p'
p4803
S'GAGTGGATAGGGGAGTGTGTGGA'
p4804
sS'hsa-miR-1299'
p4805
S'TTCTGGAATTCTGTGTGAGGGA'
p4806
sS'hsa-miR-551a'
p4807
S'GCGACCCACTCTTGGTTTCCA'
p4808
sS'hsa-miR-1293'
p4809
S'TGGGTGGTCTGGAGATTTGTGC'
p4810
sS'hsa-miR-1290'
p4811
S'TGGATTTTTGGATCAGGGA'
p4812
sS'hsa-miR-1291'
p4813
S'TGGCCCTGACTGAAGACCAGCAGT'
p4814
sS'hsa-miR-26a-2-3p'
p4815
S'CCTATTCTTGATTACTTGTTTC'
p4816
sS'hsa-miR-1297'
p4817
S'TTCAAGTAATTCAGGTG'
p4818
sS'hsa-miR-1294'
p4819
S'TGTGAGGTTGGCATTGTTGTCT'
p4820
sS'hsa-miR-190a-3p'
p4821
S'CTATATATCAAACATATTCCT'
p4822
sS'hsa-miR-6858-5p'
p4823
S'GTGAGGAGGGGCTGGCAGGGAC'
p4824
sS'hsa-miR-27a-5p'
p4825
S'AGGGCTTAGCTGCTTGTGAGCA'
p4826
sS'hsa-miR-363-5p'
p4827
S'CGGGTGGATCACGATGCAATTT'
p4828
sS'hsa-miR-4800-3p'
p4829
S'CATCCGTCCGTCTGTCCAC'
p4830
sS'hsa-miR-372-5p'
p4831
S'CCTCAAATGTGGAGCACTATTCT'
p4832
sS'hsa-miR-365b-3p'
p4833
S'TAATGCCCCTAAAAATCCTTAT'
p4834
sS'hsa-miR-4769-3p'
p4835
S'TCTGCCATCCTCCCTCCCCTAC'
p4836
sS'hsa-miR-362-3p'
p4837
S'AACACACCTATTCAAGGATTCA'
p4838
sS'hsa-miR-2355-3p'
p4839
S'ATTGTCCTTGCTGTTTGGAGAT'
p4840
sS'hsa-miR-2052'
p4841
S'TGTTTTGATAACAGTAATGT'
p4842
sS'hsa-miR-4670-5p'
p4843
S'AAGCGACCATGATGTAACTTCA'
p4844
sS'hsa-miR-2054'
p4845
S'CTGTAATATAAATTTAATTTATT'
p4846
sS'hsa-miR-523-3p'
p4847
S'GAACGCGCTTCCCTATAGAGGGT'
p4848
sS'hsa-miR-150-5p'
p4849
S'TCTCCCAACCCTTGTACCAGTG'
p4850
sS'hsa-miR-130b-3p'
p4851
S'CAGTGCAATGATGAAAGGGCAT'
p4852
sS'hsa-miR-6770-3p'
p4853
S'CTGGCGGCTGTGTCTTCACAG'
p4854
sS'hsa-miR-6765-5p'
p4855
S'GTGAGGCGGGGCCAGGAGGGTGTGT'
p4856
sS'hsa-miR-30a-3p'
p4857
S'CTTTCAGTCGGATGTTTGCAGC'
p4858
sS'hsa-miR-619-5p'
p4859
S'GCTGGGATTACAGGCATGAGCC'
p4860
sS'hsa-miR-22-3p'
p4861
S'AAGCTGCCAGTTGAAGAACTGT'
p4862
sS'hsa-miR-26b-5p'
p4863
S'TTCAAGTAATTCAGGATAGGT'
p4864
sS'hsa-miR-6744-5p'
p4865
S'TGGATGACAGTGGAGGCCT'
p4866
sS'hsa-miR-628-3p'
p4867
S'TCTAGTAAGAGTGGCAGTCGA'
p4868
sS'hsa-miR-511-3p'
p4869
S'AATGTGTAGCAAAAGACAGA'
p4870
sS'hsa-miR-518f-3p'
p4871
S'GAAAGCGCTTCTCTTTAGAGG'
p4872
sS'hsa-miR-4699-3p'
p4873
S'AATTTACTCTGCAATCTTCTCC'
p4874
sS'hsa-miR-1295b-5p'
p4875
S'CACCCAGATCTGCGGCCTAAT'
p4876
sS'hsa-miR-30b-3p'
p4877
S'CTGGGAGGTGGATGTTTACTTC'
p4878
sS'hsa-miR-199a-3p'
p4879
S'ACAGTAGTCTGCACATTGGTTA'
p4880
sS'hsa-miR-4485-3p'
p4881
S'TAACGGCCGCGGTACCCTAA'
p4882
sS'hsa-miR-30d-5p'
p4883
S'TGTAAACATCCCCGACTGGAAG'
p4884
sS'hsa-miR-1909-5p'
p4885
S'TGAGTGCCGGTGCCTGCCCTG'
p4886
sS'hsa-miR-144-3p'
p4887
S'TACAGTATAGATGATGTACT'
p4888
sS'hsa-miR-4484'
p4889
S'AAAAGGCGGGAGAAGCCCCA'
p4890
sS'hsa-miR-4486'
p4891
S'GCTGGGCGAGGCTGGCA'
p4892
sS'hsa-miR-4487'
p4893
S'AGAGCTGGCTGAAGGGCAG'
p4894
sS'hsa-miR-4480'
p4895
S'AGCCAAGTGGAAGTTACTTTA'
p4896
sS'hsa-miR-876-5p'
p4897
S'TGGATTTCTTTGTGAATCACCA'
p4898
sS'hsa-miR-718'
p4899
S'CTTCCGCCCCGCCGGGCGTCG'
p4900
sS'hsa-miR-27b-5p'
p4901
S'AGAGCTTAGCTGATTGGTGAAC'
p4902
sS'hsa-miR-4488'
p4903
S'AGGGGGCGGGCTCCGGCG'
p4904
sS'hsa-miR-4489'
p4905
S'TGGGGCTAGTGATGCAGGACG'
p4906
sS'hsa-miR-711'
p4907
S'GGGACCCAGGGAGAGACGTAAG'
p4908
sS'hsa-miR-6780b-3p'
p4909
S'TCCCTTGTCTCCTTTCCCTAG'
p4910
sS'hsa-miR-4648'
p4911
S'TGTGGGACTGCAAATGGGAG'
p4912
sS'hsa-miR-513a-5p'
p4913
S'TTCACAGGGAGGTGTCAT'
p4914
sS'hsa-miR-6728-5p'
p4915
S'TTGGGATGGTAGGACCAGAGGGG'
p4916
sS'hsa-miR-4642'
p4917
S'ATGGCATCGTCCCCTGGTGGCT'
p4918
sS'hsa-miR-651-5p'
p4919
S'TTTAGGATAAGCTTGACTTTTG'
p4920
sS'hsa-miR-3150a-5p'
p4921
S'CAACCTCGACGATCTCCTCAGC'
p4922
sS'hsa-miR-4641'
p4923
S'TGCCCATGCCATACTTTTGCCTCA'
p4924
sS'hsa-miR-4647'
p4925
S'GAAGATGGTGCTGTGCTGAGGAA'
p4926
sS'hsa-miR-4644'
p4927
S'TGGAGAGAGAAAAGAGACAGAAG'
p4928
sS'hsa-miR-3186-5p'
p4929
S'CAGGCGTCTGTCTACGTGGCTT'
p4930
sS'hsa-miR-506-5p'
p4931
S'TATTCAGGAAGGTGTTACTTAA'
p4932
sS'hsa-miR-5009-5p'
p4933
S'TTGGACTTTTTCAGATTTGGGGAT'
p4934
sS'hsa-miR-153-5p'
p4935
S'TCATTTTTGTGATGTTGCAGCT'
p4936
sS'hsa-miR-203b-3p'
p4937
S'TTGAACTGTTAAGAACCACTGGA'
p4938
sS'hsa-miR-5008-3p'
p4939
S'CCTGTGCTCCCAGGGCCTCGC'
p4940
sS'hsa-miR-6798-5p'
p4941
S'CCAGGGGGATGGGCGAGCTTGGG'
p4942
sS'hsa-miR-152-5p'
p4943
S'AGGTTCTGTGATACACTCCGACT'
p4944
sS'hsa-miR-7843-3p'
p4945
S'ATGAAGCCTTCTCTGCCTTACG'
p4946
sS'hsa-miR-4786-3p'
p4947
S'TGAAGCCAGCTCTGGTCTGGGC'
p4948
sS'hsa-miR-6818-5p'
p4949
S'TTGTGTGAGTACAGAGAGCATC'
p4950
sS'hsa-miR-1271-3p'
p4951
S'AGTGCCTGCTATGTGCCAGGCA'
p4952
sS'hsa-miR-26a-5p'
p4953
S'TTCAAGTAATCCAGGATAGGCT'
p4954
sS'hsa-miR-623'
p4955
S'ATCCCTTGCAGGGGCTGTTGGGT'
p4956
sS'hsa-miR-622'
p4957
S'ACAGTCTGCTGAGGTTGGAGC'
p4958
sS'hsa-miR-621'
p4959
S'GGCTAGCAACAGCGCTTACCT'
p4960
sS'hsa-miR-620'
p4961
S'ATGGAGATAGATATAGAAAT'
p4962
sS'hsa-miR-1255b-2-3p'
p4963
S'AACCACTTTCTTTGCTCATCCA'
p4964
sS'hsa-miR-626'
p4965
S'AGCTGTCTGAAAATGTCTT'
p4966
sS'hsa-miR-1296-5p'
p4967
S'TTAGGGCCCTGGCTCCATCTCC'
p4968
sS'hsa-miR-4693-3p'
p4969
S'TGAGAGTGGAATTCACAGTATTT'
p4970
sS'hsa-miR-29a-3p'
p4971
S'TAGCACCATCTGAAATCGGTTA'
p4972
sS'hsa-miR-5001-5p'
p4973
S'AGGGCTGGACTCAGCGGCGGAGCT'
p4974
sS'hsa-miR-448'
p4975
S'TTGCATATGTAGGATGTCCCAT'
p4976
sS'hsa-miR-3119'
p4977
S'TGGCTTTTAACTTTGATGGC'
p4978
sS'hsa-miR-5000-3p'
p4979
S'TCAGGACACTTCTGAACTTGGA'
p4980
sS'hsa-miR-411-3p'
p4981
S'TATGTAACACGGTCCACTAACC'
p4982
sS'hsa-miR-4481'
p4983
S'GGAGTGGGCTGGTGGTT'
p4984
sS'hsa-miR-6783-3p'
p4985
S'TTCCTGGGCTTCTCCTCTGTAG'
p4986
sS'hsa-miR-4723-5p'
p4987
S'TGGGGGAGCCATGAGATAAGAGCA'
p4988
sS'hsa-miR-337-3p'
p4989
S'CTCCTATATGATGCCTTTCTTC'
p4990
sS'hsa-miR-6855-3p'
p4991
S'AGACTGACCTTCAACCCCACAG'
p4992
sS'hsa-miR-1298-3p'
p4993
S'CATCTGGGCAACTGACTGAAC'
p4994
sS'hsa-miR-3127-3p'
p4995
S'TCCCCTTCTGCAGGCCTGCTGG'
p4996
sS'hsa-miR-561-3p'
p4997
S'CAAAGTTTAAGATCCTTGAAGT'
p4998
sS'hsa-miR-3134'
p4999
S'TGATGGATAAAAGACTACATATT'
p5000
sS'hsa-miR-3137'
p5001
S'TCTGTAGCCTGGGAGCAATGGGGT'
p5002
sS'hsa-miR-3131'
p5003
S'TCGAGGACTGGTGGAAGGGCCTT'
p5004
sS'hsa-miR-7847-3p'
p5005
S'CGTGGAGGACGAGGAGGAGGC'
p5006
sS'hsa-miR-3133'
p5007
S'TAAAGAACTCTTAAAACCCAAT'
p5008
sS'hsa-miR-3132'
p5009
S'TGGGTAGAGAAGGAGCTCAGAGGA'
p5010
sS'hsa-miR-513c-5p'
p5011
S'TTCTCAAGGAGGTGTCGTTTAT'
p5012
sS'hsa-miR-1249-3p'
p5013
S'ACGCCCTTCCCCCCCTTCTTCA'
p5014
sS'hsa-miR-3139'
p5015
S'TAGGAGCTCAACAGATGCCTGTT'
p5016
sS'hsa-miR-3138'
p5017
S'TGTGGACAGTGAGGTAGAGGGAGT'
p5018
sS'hsa-miR-490-5p'
p5019
S'CCATGGATCTCCAGGTGGGT'
p5020
sS'hsa-miR-5191'
p5021
S'AGGATAGGAAGAATGAAGTGCT'
p5022
sS'hsa-miR-5190'
p5023
S'CCAGTGACTGAGCTGGAGCCA'
p5024
sS'hsa-miR-5193'
p5025
S'TCCTCCTCTACCTCATCCCAGT'
p5026
sS'hsa-miR-5192'
p5027
S'AGGAGAGTGGATTCCAGGTGGT'
p5028
sS'hsa-miR-4524a-3p'
p5029
S'TGAGACAGGCTTATGCTGCTAT'
p5030
sS'hsa-miR-8485'
p5031
S'CACACACACACACACACGTAT'
p5032
sS'hsa-miR-5011-3p'
p5033
S'GTGCATGGCTGTATATATAACA'
p5034
sS'hsa-miR-340-5p'
p5035
S'TTATAAAGCAATGAGACTGATT'
p5036
sS'hsa-miR-6780b-5p'
p5037
S'TGGGGAAGGCTTGGCAGGGAAGA'
p5038
sS'hsa-miR-4776-5p'
p5039
S'GTGGACCAGGATGGCAAGGGCT'
p5040
sS'hsa-miR-7107-3p'
p5041
S'TGGTCTGTTCATTCTCTCTTTTTGGCC'
p5042
sS'hsa-miR-1247-5p'
p5043
S'ACCCGTCCCGTTCGTCCCCGGA'
p5044
sS'hsa-miR-3190-5p'
p5045
S'TCTGGCCAGCTACGTCCCCA'
p5046
sS'hsa-miR-129-2-3p'
p5047
S'AAGCCCTTACCCCAAAAAGCAT'
p5048
sS'hsa-miR-219b-5p'
p5049
S'AGATGTCCAGCCACAATTCTCG'
p5050
sS'hsa-miR-6766-3p'
p5051
S'TGATTGTCTTCCCCCACCCTCA'
p5052
sS'hsa-miR-6740-5p'
p5053
S'AGTTTGGGATGGAGAGAGGAGA'
p5054
sS'hsa-miR-30c-2-3p'
p5055
S'CTGGGAGAAGGCTGTTTACTCT'
p5056
sS'hsa-miR-4635'
p5057
S'TCTTGAAGTCAGAACCCGCAA'
p5058
sS'hsa-miR-548at-5p'
p5059
S'AAAAGTTATTGCGGTTTTGGCT'
p5060
sS'hsa-miR-187-5p'
p5061
S'GGCTACAACACAGGACCCGGGC'
p5062
sS'hsa-miR-4801'
p5063
S'TACACAAGAAAACCAAGGCTCA'
p5064
sS'hsa-miR-504-5p'
p5065
S'AGACCCTGGTCTGCACTCTATC'
p5066
sS'hsa-miR-668-5p'
p5067
S'TGCGCCTCGGGTGAGCATG'
p5068
sS'hsa-miR-4665-5p'
p5069
S'CTGGGGGACGCGTGAGCGCGAGC'
p5070
sS'hsa-miR-17-5p'
p5071
S'CAAAGTGCTTACAGTGCAGGTAG'
p5072
sS'hsa-let-7c-3p'
p5073
S'CTGTACAACCTTCTAGCTTTCC'
p5074
sS'hsa-miR-4712-3p'
p5075
S'AATGAGAGACCTGTACTGTAT'
p5076
sS'hsa-miR-378a-3p'
p5077
S'ACTGGACTTGGAGTCAGAAGGC'
p5078
sS'hsa-miR-3942-5p'
p5079
S'AAGCAATACTGTTACCTGAAAT'
p5080
sS'hsa-miR-5047'
p5081
S'TTGCAGCTGCGGTTGTAAGGT'
p5082
sS'hsa-miR-6715b-5p'
p5083
S'ACAGGCACGACTGGTTTGGCA'
p5084
sS'hsa-miR-548ah-3p'
p5085
S'CAAAAACTGCAGTTACTTTTGC'
p5086
sS'hsa-miR-4697-3p'
p5087
S'TGTCAGTGACTCCTGCCCCTTGGT'
p5088
sS'hsa-miR-3173-3p'
p5089
S'AAAGGAGGAAATAGGCAGGCCA'
p5090
sS'hsa-miR-1180-5p'
p5091
S'GGACCCACCCGGCCGGGAATA'
p5092
sS'hsa-miR-7155-5p'
p5093
S'TCTGGGGTCTTGGGCCATC'
p5094
sS'hsa-miR-3917'
p5095
S'GCTCGGACTGAGCAGGTGGG'
p5096
sS'hsa-miR-3916'
p5097
S'AAGAGGAAGAAATGGCTGGTTCTCAG'
p5098
sS'hsa-miR-3915'
p5099
S'TTGAGGAAAAGATGGTCTTATT'
p5100
sS'hsa-miR-3914'
p5101
S'AAGGAACCAGAAAATGAGAAGT'
p5102
sS'hsa-miR-3911'
p5103
S'TGTGTGGATCCTGGAGGAGGCA'
p5104
sS'hsa-miR-3910'
p5105
S'AAAGGCATAAAACCAAGACA'
p5106
sS'hsa-miR-548g-5p'
p5107
S'TGCAAAAGTAATTGCAGTTTTTG'
p5108
sS'hsa-miR-3919'
p5109
S'GCAGAGAACAAAGGACTCAGT'
p5110
sS'hsa-miR-3918'
p5111
S'ACAGGGCCGCAGATGGAGACT'
p5112
sS'hsa-miR-6501-5p'
p5113
S'AGTTGCCAGGGCTGCCTTTGGT'
p5114
sS'hsa-miR-374b-3p'
p5115
S'CTTAGCAGGTTGTATTATCATT'
p5116
sS'hsa-miR-1193'
p5117
S'GGGATGGTAGACCGGTGACGTGC'
p5118
sS'hsa-miR-182-3p'
p5119
S'TGGTTCTAGACTTGCCAACTA'
p5120
sS'hsa-miR-7162-5p'
p5121
S'TGCTTCCTTTCTCAGCTG'
p5122
sS'hsa-miR-1197'
p5123
S'TAGGACACATGGTCTACTTCT'
p5124
sS'hsa-miR-874-5p'
p5125
S'CGGCCCCACGCACCAGGGTAAGA'
p5126
sS'hsa-miR-6874-5p'
p5127
S'ATGGAGCTGGAACCAGATCAGGC'
p5128
sS'hsa-miR-4790-5p'
p5129
S'ATCGCTTTACCATTCATGTT'
p5130
sS'hsa-miR-6793-5p'
p5131
S'TGTGGGTTCTGGGTTGGGGTGA'
p5132
sS'hsa-miR-3667-5p'
p5133
S'AAAGACCCATTGAGGAGAAGGT'
p5134
sS'hsa-miR-1273h-5p'
p5135
S'CTGGGAGGTCAAGGCTGCAGT'
p5136
sS'hsa-miR-6830-3p'
p5137
S'TGTCTTTCTTCTCTCCCTTGCAG'
p5138
sS'hsa-miR-548av-5p'
p5139
S'AAAAGTACTTGCGGATTT'
p5140
sS'hsa-miR-1910-3p'
p5141
S'GAGGCAGAAGCAGGATGACA'
p5142
sS'hsa-miR-92b-5p'
p5143
S'AGGGACGGGACGCGGTGCAGTG'
p5144
sS'hsa-miR-517-5p'
p5145
S'CCTCTAGATGGAAGCACTGTCT'
p5146
sS'hsa-miR-585-3p'
p5147
S'TGGGCGTATCTGTATGCTA'
p5148
sS'hsa-miR-6877-3p'
p5149
S'CAGCCTCTGCCCTTGGCCTCC'
p5150
sS'hsa-miR-29b-2-5p'
p5151
S'CTGGTTTCACATGGTGGCTTAG'
p5152
sS'hsa-miR-3609'
p5153
S'CAAAGTGATGAGTAATACTGGCTG'
p5154
sS'hsa-miR-548o-3p'
p5155
S'CCAAAACTGCAGTTACTTTTGC'
p5156
sS'hsa-miR-6890-5p'
p5157
S'CATGGGGTAGGGCAGAGTAGG'
p5158
sS'hsa-miR-301b-3p'
p5159
S'CAGTGCAATGATATTGTCAAAGC'
p5160
sS'hsa-miR-1284'
p5161
S'TCTATACAGACCCTGGCTTTTC'
p5162
sS'hsa-miR-1286'
p5163
S'TGCAGGACCAAGATGAGCCCT'
p5164
sS'hsa-miR-1281'
p5165
S'TCGCCTCCTCCTCTCCC'
p5166
sS'hsa-miR-200c-5p'
p5167
S'CGTCTTACCCAGCAGTGTTTGG'
p5168
sS'hsa-miR-1283'
p5169
S'TCTACAAAGGAAAGCGCTTTCT'
p5170
sS'hsa-miR-1282'
p5171
S'TCGTTTGCCTTTTTCTGCTT'
p5172
sS'hsa-miR-1289'
p5173
S'TGGAGTCCAGGAATCTGCATTTT'
p5174
sS'hsa-miR-192-3p'
p5175
S'CTGCCAATTCCATAGGTCACAG'
p5176
s.