(dp0
S'hsa-miR-20b-5p'
p1
S'CAAAGTGCTCATAGTGCAGGTAG'
p2
sS'hsa-miR-363-3p'
p3
S'AATTGCACGGTATCCATCTGTA'
p4
sS'hsa-miR-200a-3p'
p5
S'TAACACTGTCTGGTAACGATGT'
p6
sS'hsa-miR-19a-3p'
p7
S'TGTGCAAATCTATGCAAAACTGA'
p8
sS'hsa-miR-30a-5p'
p9
S'TGTAAACATCCTCGACTGGAAG'
p10
sS'hsa-miR-10b-5p'
p11
S'TACCCTGTAGAACCGAATTTGTG'
p12
sS'hsa-miR-146a-5p'
p13
S'TGAGAACTGAATTCCATGGGTT'
p14
sS'hsa-miR-148a-3p'
p15
S'TCAGTGCACTACAGAACTTTGT'
p16
s.